->rgb(252,126,126)
I2C/C2I adapters->rgb(99,222,99)
Interpreter->rgb(222,99,99)
JVM_DefineClassWithSource->rgb(222,99,99)
JVM_IHashCode->rgb(222,99,99)
Java_io_netty_channel_epoll_Native_epollWait->rgb(222,99,99)
Java_io_netty_channel_epoll_Native_eventFdRead->rgb(222,99,99)
Java_java_lang_ClassLoader_defineClass1->rgb(222,99,99)
LZ4_decompress_fast->rgb(222,99,99)
Unsafe_Park->rgb(222,99,99)
Unsafe_Unpark->rgb(222,99,99)
[unknown]->rgb(222,99,99)
_Z15find_lowest_bitj->rgb(222,111,55)
_ZL10java_startP6Thread->rgb(222,111,55)
_ZL12thread_entryP10JavaThreadP6Thread->rgb(222,111,55)
_ZL23jvm_define_class_commonP7JNIEnv_PKcP8_jobjectPKaiS4_S2_hP6Thread->rgb(222,111,55)
_ZN10BlockBegin9try_mergeEP10ValueStack->rgb(222,111,55)
_ZN10BufferBlob6createEPKci->rgb(222,111,55)
_ZN10C2Compiler14compile_methodEP5ciEnvP8ciMethodi->rgb(222,111,55)
_ZN10CodeBuffer12copy_code_toEP8CodeBlob->rgb(222,111,55)
_ZN10Dictionary4findEijP6SymbolP15ClassLoaderData6HandleP6Thread->rgb(222,111,55)
_ZN10GCNotifier16sendNotificationEP6Thread->rgb(222,111,55)
_ZN10GCNotifier24sendNotificationInternalEP6Thread->rgb(222,111,55)
_ZN10InlineTree12ok_to_inlineEP8ciMethodP8JVMStateR13ciCallProfileP12WarmCallInfoRb->rgb(222,111,55)
_ZN10InlineTree13try_to_inlineEP8ciMethodS1_iP8JVMStateR13ciCallProfileP12WarmCallInfoRb->rgb(222,111,55)
_ZN10InlineTree15check_can_parseEP8ciMethod->rgb(222,111,55)
_ZN10InlineTree17should_not_inlineEP8ciMethodS1_P8JVMStateP12WarmCallInfo->rgb(222,111,55)
_ZN10InlineTree22find_subtree_from_rootEPS_P8JVMStateP8ciMethod->rgb(222,111,55)
_ZN10InlineTree28build_inline_tree_for_calleeEP8ciMethodP8JVMStatei->rgb(222,111,55)
_ZN10JavaThread17thread_main_innerEv->rgb(222,111,55)
_ZN10JavaThread27thread_from_jni_environmentEP7JNIEnv_->rgb(222,111,55)
_ZN10JavaThread3runEv->rgb(222,111,55)
_ZN10JavaThread43handle_special_suspend_equivalent_conditionEv->rgb(222,111,55)
_ZN10JavaThread7oops_doEP10OopClosureP10CLDClosureP15CodeBlobClosure->rgb(222,111,55)
_ZN10JavaThreadD1Ev->rgb(222,111,55)
_ZN10JfrBackend16is_event_enabledE12TraceEventId->rgb(222,111,55)
_ZN10LinearScan14assign_reg_numEP10LIR_OpListP14IntervalWalker->rgb(222,111,55)
_ZN10LinearScan14assign_reg_numEv->rgb(222,111,55)
_ZN10LinearScan14do_linear_scanEv->rgb(222,111,55)
_ZN10LinearScan15build_intervalsEv->rgb(222,111,55)
_ZN10LinearScan18append_scope_valueEiP11InstructionP13GrowableArrayIP10ScopeValueE->rgb(222,111,55)
_ZN10LinearScan23compute_local_live_setsEv->rgb(222,111,55)
_ZN10LinearScan28compute_debug_info_for_scopeEiP7IRScopeP10ValueStackS3_->rgb(222,111,55)
_ZN10Node_Array4growEj->rgb(222,111,55)
_ZN10RegionNode5IdealEP8PhaseGVNb->rgb(222,111,55)
_ZN10TypeOopPtr22make_from_klass_commonEP7ciKlassbb->rgb(222,111,55)
_ZN10TypeOopPtrC2EN4Type5TYPESEN7TypePtr3PTREP7ciKlassbP8ciObjectiiPKS_i->rgb(222,111,55)
_ZN10ciTypeFlow10flow_blockEPNS_5BlockEPNS_11StateVectorEPNS_6JsrSetE->rgb(222,111,55)
_ZN10ciTypeFlow10flow_typesEv->rgb(222,111,55)
_ZN10ciTypeFlow10map_blocksEv->rgb(222,111,55)
_ZN10ciTypeFlow11StateVector12do_getstaticEP16ciBytecodeStream->rgb(222,111,55)
_ZN10ciTypeFlow11StateVector14push_translateEP6ciType->rgb(222,111,55)
_ZN10ciTypeFlow11StateVector18apply_one_bytecodeEP16ciBytecodeStream->rgb(222,111,55)
_ZN10ciTypeFlow11StateVector6do_newEP16ciBytecodeStream->rgb(222,111,55)
_ZN10ciTypeFlow11StateVector9do_invokeEP16ciBytecodeStreamb->rgb(222,111,55)
_ZN10ciTypeFlow13df_flow_typesEPNS_5BlockEbPNS_11StateVectorEPNS_6JsrSetE->rgb(222,111,55)
_ZN10ciTypeFlow13get_block_forEiPNS_6JsrSetENS_12CreateOptionE->rgb(222,111,55)
_ZN10ciTypeFlow5Block10successorsEP16ciBytecodeStreamPNS_11StateVectorEPNS_6JsrSetE->rgb(222,111,55)
_ZN10ciTypeFlow7do_flowEv->rgb(222,111,55)
_ZN11CardTableRS29younger_refs_in_space_iterateEP5SpaceP16OopsInGenClosure->rgb(222,111,55)
_ZN11Compilation12install_codeEi->rgb(222,111,55)
_ZN11Compilation14compile_methodEv->rgb(222,111,55)
_ZN11Compilation14emit_code_bodyEv->rgb(222,111,55)
_ZN11Compilation19compile_java_methodEv->rgb(222,111,55)
_ZN11Compilation8emit_lirEv->rgb(222,111,55)
_ZN11Compilation9build_hirEv->rgb(222,111,55)
_ZN11CompilationC1EP16AbstractCompilerP5ciEnvP8ciMethodiP10BufferBlob->rgb(222,111,55)
_ZN11OopMapCache19compute_one_oop_mapE12methodHandleiP17InterpreterOopMap->rgb(222,111,55)
_ZN11OptoRuntime11new_array_CEP5KlassiP10JavaThread->rgb(222,111,55)
_ZN11OptoRuntime18new_array_nozero_CEP5KlassiP10JavaThread->rgb(222,111,55)
_ZN11OptoRuntime27is_deoptimized_caller_frameEP10JavaThread->rgb(222,111,55)
_ZN11PhaseValues16uncached_makeconEPK4Type->rgb(222,111,55)
_ZN11StringTable25possibly_parallel_oops_doEP10OopClosure->rgb(222,111,55)
_ZN11SymbolTable6lookupEPK6SymboliiP6Thread->rgb(222,111,55)
_ZN11TypeInstPtr4makeEN7TypePtr3PTREP7ciKlassbP8ciObjectiiPK10TypeOopPtri->rgb(222,111,55)
_ZN11ciSignatureC1EP7ciKlass18constantPoolHandleP8ciSymbol->rgb(222,111,55)
_ZN12CodeEmitInfo17record_debug_infoEP24DebugInformationRecorderi->rgb(222,111,55)
_ZN12CompileQueue3getEv->rgb(222,111,55)
_ZN12ConstantPool18klass_at_if_loadedE18constantPoolHandlei->rgb(222,111,55)
_ZN12ConstantPool23impl_klass_ref_index_atEib->rgb(222,111,55)
_ZN12GraphBuilder10try_inlineEP8ciMethodbN9Bytecodes4CodeEP11Instruction->rgb(222,111,55)
_ZN12GraphBuilder12access_fieldEN9Bytecodes4CodeE->rgb(222,111,55)
_ZN12GraphBuilder15try_inline_fullEP8ciMethodbN9Bytecodes4CodeEP11Instruction->rgb(222,111,55)
_ZN12GraphBuilder18iterate_all_blocksEb->rgb(222,111,55)
_ZN12GraphBuilder21setup_osr_entry_blockEv->rgb(222,111,55)
_ZN12GraphBuilder27iterate_bytecodes_for_blockEi->rgb(222,111,55)
_ZN12GraphBuilder6invokeEN9Bytecodes4CodeE->rgb(222,111,55)
_ZN12GraphBuilder9ScopeData8block_atEi->rgb(222,111,55)
_ZN12GraphBuilderC1EP11CompilationP7IRScope->rgb(222,111,55)
_ZN12LinkResolver14resolve_methodER12methodHandle11KlassHandleP6SymbolS4_S2_bbP6Thread->rgb(222,111,55)
_ZN12LinkResolver19resolve_static_callER8CallInfoR11KlassHandleP6SymbolS5_S2_bbP6Thread->rgb(222,111,55)
_ZN12LinkResolver20resolve_virtual_callER8CallInfo6Handle11KlassHandleS3_P6SymbolS5_S3_bbP6Thread->rgb(222,111,55)
_ZN12LinkResolver22resolve_interface_callER8CallInfo6Handle11KlassHandleS3_P6SymbolS5_S3_bbP6Thread->rgb(222,111,55)
_ZN12LinkResolver25check_field_accessabilityE11KlassHandleS0_S0_R15fieldDescriptorP6Thread->rgb(222,111,55)
_ZN12LinkResolver27resolve_static_call_or_nullE11KlassHandleP6SymbolS2_S0_b->rgb(222,111,55)
_ZN12LinkResolver30linktime_resolve_static_methodER12methodHandle11KlassHandleP6SymbolS4_S2_bP6Thread->rgb(222,111,55)
_ZN12LinkResolver30resolve_interface_call_or_nullE11KlassHandleS0_P6SymbolS2_S0_b->rgb(222,111,55)
_ZN12LinkResolver30runtime_resolve_virtual_methodER8CallInfo12methodHandle11KlassHandle6HandleS3_bP6Thread->rgb(222,111,55)
_ZN12LinkResolver31linktime_resolve_virtual_methodER12methodHandle11KlassHandleP6SymbolS4_S2_bP6Thread->rgb(222,111,55)
_ZN12LinkResolver32runtime_resolve_interface_methodER8CallInfo12methodHandle11KlassHandle6HandleS3_bP6Thread->rgb(222,111,55)
_ZN12LinkResolver33lookup_instance_method_in_klassesER12methodHandle11KlassHandleP6SymbolS4_P6Thread->rgb(222,111,55)
_ZN12LinkResolver39linktime_resolve_virtual_method_or_nullE11KlassHandleP6SymbolS2_S0_b->rgb(222,111,55)
_ZN12MergeMemNode13set_memory_atEjP4Node->rgb(222,111,55)
_ZN12MergeMemNode4makeEP7CompileP4Node->rgb(222,111,55)
_ZN12MergeMemNode5IdealEP8PhaseGVNb->rgb(222,111,55)
_ZN12PhaseChaitin10elide_copyEP4NodeiP5BlockR9Node_ListS5_b->rgb(222,111,55)
_ZN12PhaseChaitin11insert_projEP5BlockjP4Nodej->rgb(222,111,55)
_ZN12PhaseChaitin12fixup_spillsEv->rgb(222,111,55)
_ZN12PhaseChaitin15merge_multidefsEv->rgb(222,111,55)
_ZN12PhaseChaitin16gather_lrg_masksEb->rgb(222,111,55)
_ZN12PhaseChaitin17Register_AllocateEv->rgb(222,111,55)
_ZN12PhaseChaitin17build_ifg_virtualEv->rgb(222,111,55)
_ZN12PhaseChaitin18build_ifg_physicalEP12ResourceArea->rgb(222,111,55)
_ZN12PhaseChaitin19interfere_with_liveEjP8IndexSet->rgb(222,111,55)
_ZN12PhaseChaitin19split_RematerializeEP4NodeP5BlockjRj13GrowableArrayIjEiPjPS1_b->rgb(222,111,55)
_ZN12PhaseChaitin23possibly_merge_multidefEP4NodejP5BlockR13GrowableArrayINS_9RegDefUseEE->rgb(222,111,55)
_ZN12PhaseChaitin26post_allocate_copy_removalEv->rgb(222,111,55)
_ZN12PhaseChaitin32stretch_base_pointer_live_rangesEP12ResourceArea->rgb(222,111,55)
_ZN12PhaseChaitin5SplitEjP12ResourceArea->rgb(222,111,55)
_ZN12PhaseChaitin6SelectEv->rgb(222,111,55)
_ZN12PhaseChaitin7new_lrgEPK4Nodej->rgb(222,111,55)
_ZN12PhaseChaitin8SimplifyEv->rgb(222,111,55)
_ZN12PhaseChaitin9split_USEEP4NodeP5BlockS1_jjbb13GrowableArrayIjEi->rgb(222,111,55)
_ZN12PhaseIterGVN12replace_nodeEP4NodeS1_->rgb(222,111,55)
_ZN12PhaseIterGVN12subsume_nodeEP4NodeS1_->rgb(222,111,55)
_ZN12PhaseIterGVN13transform_oldEP4Node->rgb(222,111,55)
_ZN12PhaseIterGVN21add_users_to_worklistEP4Node->rgb(222,111,55)
_ZN12PhaseIterGVN25remove_globally_dead_nodeEP4Node->rgb(222,111,55)
_ZN12PhaseIterGVN8optimizeEv->rgb(222,111,55)
_ZN12PhaseIterGVNC1EP8PhaseGVN->rgb(222,111,55)
_ZN12VM_Operation8evaluateEv->rgb(222,111,55)
_ZN12ciBaseObject5identEv->rgb(222,111,55)
_ZN12ciMethodData11bci_to_dataEiP8ciMethod->rgb(222,111,55)
_ZN12ciMethodData9load_dataEv->rgb(222,111,55)
_ZN12methodHandleD1Ev->rgb(222,111,55)
_ZN13CallGenerator10for_inlineEP8ciMethodf->rgb(222,111,55)
_ZN13CallGenerator22for_method_handle_callEP8JVMStateP8ciMethodS3_b->rgb(222,111,55)
_ZN13CallGenerator24for_method_handle_inlineEP8JVMStateP8ciMethodS3_Rb->rgb(222,111,55)
_ZN13CompileBroker20compiler_thread_loopEv->rgb(222,111,55)
_ZN13CompileBroker25invoke_compiler_on_methodEP11CompileTask->rgb(222,111,55)
_ZN13GrowableArrayIP8MetadataE4pushERKS1_->rgb(222,111,55)
_ZN13IdealLoopTree12counted_loopEP14PhaseIdealLoop->rgb(222,111,55)
_ZN13IdealLoopTree15iteration_splitEP14PhaseIdealLoopR9Node_List->rgb(222,111,55)
_ZN13IdealLoopTree20iteration_split_implEP14PhaseIdealLoopR9Node_List->rgb(222,111,55)
_ZN13InstanceKlass17allocate_instanceEP6Thread->rgb(222,111,55)
_ZN13InstanceKlass17find_method_indexEP5ArrayIP6MethodEP6SymbolS6_bb->rgb(222,111,55)
_ZN13InstanceKlass18oop_oop_iterate_nvEP7oopDescP25ParScanWithBarrierClosure->rgb(222,111,55)
_ZN13InstanceKlass18oop_oop_iterate_nvEP7oopDescP28ParScanWithoutBarrierClosure->rgb(222,111,55)
_ZN13InstanceKlass20oop_oop_iterate_nv_mEP7oopDescP16FilteringClosure9MemRegion->rgb(222,111,55)
_ZN13LIR_Assembler13add_call_infoEiP12CodeEmitInfo->rgb(222,111,55)
_ZN13LIR_Assembler9emit_callEP14LIR_OpJavaCall->rgb(222,111,55)
_ZN13LIR_Assembler9emit_codeEP9BlockList->rgb(222,111,55)
_ZN13ParNewGenTask4workEj->rgb(222,111,55)
_ZN13PhaseCoalesce15coalesce_driverEv->rgb(222,111,55)
_ZN13RelocIterator19advance_over_prefixEv->rgb(222,111,55)
_ZN13ServiceThread20service_thread_entryEP10JavaThreadP6Thread->rgb(222,111,55)
_ZN13ValueRecorderIP8MetadataE16maybe_find_indexES1_->rgb(222,111,55)
_ZN14GenerateOopMap11bb_mark_fctEPS_iPi->rgb(222,111,55)
_ZN14GenerateOopMap11compute_mapEP6Thread->rgb(222,111,55)
_ZN14GenerateOopMap34mark_bbheaders_and_count_gc_pointsEv->rgb(222,111,55)
_ZN14InitializeNode17can_capture_storeEP9StoreNodeP14PhaseTransformb->rgb(222,111,55)
_ZN14InitializeNode24detect_init_independenceEP4NodeRi->rgb(222,111,55)
_ZN14MacroAssembler21decode_klass_not_nullEP12RegisterImplS1_->rgb(222,111,55)
_ZN14MethodLiveness15get_liveness_atEi->rgb(222,111,55)
_ZN14NMethodSweeper14possibly_sweepEv->rgb(222,111,55)
_ZN14NMethodSweeper15process_nmethodEP7nmethod->rgb(222,111,55)
_ZN14NMethodSweeper16sweep_code_cacheEv->rgb(222,111,55)
_ZN14ParseGenerator8generateEP8JVMState->rgb(222,111,55)
_ZN14PhaseIdealLoop10DominatorsEv->rgb(222,111,55)
_ZN14PhaseIdealLoop10clone_loopEP13IdealLoopTreeR9Node_ListiP4Node->rgb(222,111,55)
_ZN14PhaseIdealLoop11do_split_ifEP4Node->rgb(222,111,55)
_ZN14PhaseIdealLoop12lazy_replaceEP4NodeS1_->rgb(222,111,55)
_ZN14PhaseIdealLoop13get_late_ctrlEP4NodeS1_->rgb(222,111,55)
_ZN14PhaseIdealLoop14get_early_ctrlEP4Node->rgb(222,111,55)
_ZN14PhaseIdealLoop14split_thru_phiEP4NodeS1_i->rgb(222,111,55)
_ZN14PhaseIdealLoop15build_loop_lateER9VectorSetR9Node_ListR10Node_Stack->rgb(222,111,55)
_ZN14PhaseIdealLoop15build_loop_treeEv->rgb(222,111,55)
_ZN14PhaseIdealLoop15is_counted_loopEP4NodeP13IdealLoopTree->rgb(222,111,55)
_ZN14PhaseIdealLoop16build_loop_earlyER9VectorSetR9Node_ListR10Node_Stack->rgb(222,111,55)
_ZN14PhaseIdealLoop18build_and_optimizeEbb->rgb(222,111,55)
_ZN14PhaseIdealLoop19compute_lca_of_usesEP4NodeS1_b->rgb(222,111,55)
_ZN14PhaseIdealLoop20build_loop_late_postEP4Node->rgb(222,111,55)
_ZN14PhaseIdealLoop20build_loop_tree_implEP4Nodei->rgb(222,111,55)
_ZN14PhaseIdealLoop20split_if_with_blocksER9VectorSetR10Node_Stack->rgb(222,111,55)
_ZN14PhaseIdealLoop21insert_pre_post_loopsEP13IdealLoopTreeR9Node_Listb->rgb(222,111,55)
_ZN14PhaseIdealLoop24split_if_with_blocks_preEP4Node->rgb(222,111,55)
_ZN14PhaseIdealLoop25remix_address_expressionsEP4Node->rgb(222,111,55)
_ZN14PhaseIdealLoop25split_if_with_blocks_postEP4Node->rgb(222,111,55)
_ZN14PhaseIdealLoop34dom_lca_for_get_late_ctrl_internalEP4NodeS1_S1_->rgb(222,111,55)
_ZN14TypeArrayKlass15allocate_commonEibP6Thread->rgb(222,111,55)
_ZN14oop_Relocation9oop_valueEv->rgb(222,111,55)
_ZN15ClassLoaderData7oops_doEP10OopClosureP12KlassClosureb->rgb(222,111,55)
_ZN15ConnectionGraph11do_analysisEP7CompileP12PhaseIterGVN->rgb(222,111,55)
_ZN15ConnectionGraph12is_oop_fieldEP4NodeiPb->rgb(222,111,55)
_ZN15ConnectionGraph13find_inst_memEP4NodeiR13GrowableArrayIP7PhiNodeE->rgb(222,111,55)
_ZN15ConnectionGraph14compute_escapeEv->rgb(222,111,55)
_ZN15ConnectionGraph15add_final_edgesEP4Node->rgb(222,111,55)
_ZN15ConnectionGraph16create_split_phiEP7PhiNodeiR13GrowableArrayIS1_ERb->rgb(222,111,55)
_ZN15ConnectionGraph16split_memory_phiEP7PhiNodeiR13GrowableArrayIS1_E->rgb(222,111,55)
_ZN15ConnectionGraph18split_unique_typesER13GrowableArrayIP4NodeE->rgb(222,111,55)
_ZN15ConnectionGraph21add_java_object_edgesEP14JavaObjectNodeb->rgb(222,111,55)
_ZN15ConnectionGraph22add_fields_to_worklistEP9FieldNodeP12PointsToNode->rgb(222,111,55)
_ZN15ConnectionGraph22process_call_argumentsEP8CallNode->rgb(222,111,55)
_ZN15ConnectionGraph25complete_connection_graphER13GrowableArrayIP12PointsToNodeERS0_IP14JavaObjectNodeES8_RS0_IP9FieldNodeE->rgb(222,111,55)
_ZN15ConnectionGraph26add_field_uses_to_worklistEP9FieldNode->rgb(222,111,55)
_ZN15ConnectionGraph28add_node_to_connection_graphEP4NodeP16Unique_Node_List->rgb(222,111,55)
_ZN15ConnectionGraph9add_fieldEP4NodeN12PointsToNode11EscapeStateEi->rgb(222,111,55)
_ZN15Filtering_DCTOC15walk_mem_regionE9MemRegionP8HeapWordS2_->rgb(222,111,55)
_ZN15SignatureStream18next_non_primitiveEi->rgb(222,111,55)
_ZN15SignatureStream9as_symbolEP6Thread->rgb(222,111,55)
_ZN15ciInstanceKlass11java_mirrorEv->rgb(222,111,55)
_ZN15ciInstanceKlass19get_field_by_offsetEib->rgb(222,111,55)
_ZN15ciInstanceKlass24compute_nonstatic_fieldsEv->rgb(222,111,55)
_ZN15ciInstanceKlass29compute_nonstatic_fields_implEP13GrowableArrayIP7ciFieldE->rgb(222,111,55)
_ZN15ciInstanceKlass5superEv->rgb(222,111,55)
_ZN15ciInstanceKlassC1E11KlassHandle->rgb(222,111,55)
_ZN15ciObjectFactory10get_symbolEP6Symbol->rgb(222,111,55)
_ZN15ciObjectFactory12get_metadataEP8Metadata->rgb(222,111,55)
_ZN15ciObjectFactory19create_new_metadataEP8Metadata->rgb(222,111,55)
_ZN15ciObjectFactory3getEP7oopDesc->rgb(222,111,55)
_ZN15java_lang_Class17protection_domainEP7oopDesc->rgb(222,111,55)
_ZN16BCEscapeAnalyzerC1EP8ciMethodPS_->rgb(222,111,55)
_ZN16GenCollectedHeap13do_collectionEbbmbi->rgb(222,111,55)
_ZN16GenCollectedHeap13process_rootsEbNS_14ScanningOptionEP10OopClosureS2_P10CLDClosureS4_P15CodeBlobClosure->rgb(222,111,55)
_ZN16GenCollectedHeap17gen_process_rootsEibbNS_14ScanningOptionEbP16OopsInGenClosureS2_P10CLDClosure->rgb(222,111,55)
_ZN16IndexSetIterator16advance_and_nextEv->rgb(222,111,55)
_ZN16KlassScanClosure8do_klassEP5Klass->rgb(222,111,55)
_ZN16LibraryIntrinsic8generateEP8JVMState->rgb(222,111,55)
_ZN16OopMapCacheEntry4fillE12methodHandlei->rgb(222,111,55)
_ZN16ParNewGeneration46copy_to_survivor_space_avoiding_promotion_undoEP18ParScanThreadStateP7oopDescmP11markOopDesc->rgb(222,111,55)
_ZN16ParNewGeneration7collectEbbmb->rgb(222,111,55)
_ZN16PhaseBlockLayout14reorder_tracesEi->rgb(222,111,55)
_ZN16PhaseBlockLayoutC1ER8PhaseCFG->rgb(222,111,55)
_ZN16PhaseMacroExpand14value_from_memEP4Node9BasicTypePK4TypePK10TypeOopPtrS1_->rgb(222,111,55)
_ZN16PhaseMacroExpand17initialize_objectEP12AllocateNodeP4NodeS3_S3_S3_S3_S3_->rgb(222,111,55)
_ZN16PhaseMacroExpand18expand_macro_nodesEv->rgb(222,111,55)
_ZN16PhaseMacroExpand18scalar_replacementEP12AllocateNodeR13GrowableArrayIP13SafePointNodeE->rgb(222,111,55)
_ZN16PhaseMacroExpand18value_from_mem_phiEP4Node9BasicTypePK4TypePK10TypeOopPtrS1_P10Node_Stacki->rgb(222,111,55)
_ZN16PhaseMacroExpand21eliminate_macro_nodesEv->rgb(222,111,55)
_ZN16PhaseMacroExpand22expand_allocate_commonEP12AllocateNodeP4NodePK8TypeFuncPh->rgb(222,111,55)
_ZN16PhaseMacroExpand23eliminate_allocate_nodeEP12AllocateNode->rgb(222,111,55)
_ZN16PhaseMacroExpand9make_loadEP4NodeS1_S1_iPK4Type9BasicType->rgb(222,111,55)
_ZN16PreserveJVMStateC1EP8GraphKitb->rgb(222,111,55)
_ZN16SystemDictionary19resolve_from_streamEP6Symbol6HandleS2_P15ClassFileStreambP6Thread->rgb(222,111,55)
_ZN16SystemDictionary21define_instance_classE19instanceKlassHandleP6Thread->rgb(222,111,55)
_ZN16SystemDictionary23check_signature_loadersEP6Symbol6HandleS2_bP6Thread->rgb(222,111,55)
_ZN16SystemDictionary28find_instance_or_array_klassEP6Symbol6HandleS2_P6Thread->rgb(222,111,55)
_ZN16SystemDictionary29find_or_define_instance_classEP6Symbol6Handle19instanceKlassHandleP6Thread->rgb(222,111,55)
_ZN16SystemDictionary40find_constrained_instance_or_array_klassEP6Symbol6HandleP6Thread->rgb(222,111,55)
_ZN16SystemDictionary4findEP6Symbol6HandleS2_P6Thread->rgb(222,111,55)
_ZN16ciBytecodeStream10get_methodERbPP11ciSignature->rgb(222,111,55)
_ZN16ciBytecodeStream9get_fieldERb->rgb(222,111,55)
_ZN16ciBytecodeStream9get_klassERb->rgb(222,111,55)
_ZN16java_lang_Thread17set_thread_statusEP7oopDescNS_12ThreadStatusE->rgb(222,111,55)
_ZN17AllocateArrayNode5IdealEP8PhaseGVNb->rgb(222,111,55)
_ZN17CardTableModRefBS14process_strideEP5Space9MemRegioniiP16OopsInGenClosureP11CardTableRSPPamm->rgb(222,111,55)
_ZN17CardTableModRefBS24process_chunk_boundariesEP5SpaceP21DirtyCardToOopClosure9MemRegionS4_PPamm->rgb(222,111,55)
_ZN17CardTableModRefBS36non_clean_card_iterate_parallel_workEP5Space9MemRegionP16OopsInGenClosureP11CardTableRSi->rgb(222,111,55)
_ZN17CardTableModRefBS40non_clean_card_iterate_possibly_parallelEP5Space9MemRegionP16OopsInGenClosureP11CardTableRS->rgb(222,111,55)
_ZN17CompilationPolicy15can_be_compiledE12methodHandlei->rgb(222,111,55)
_ZN17CompilationPolicy16must_be_compiledE12methodHandlei->rgb(222,111,55)
_ZN17HandleMarkCleanerD1Ev->rgb(222,111,55)
_ZN18GenCollectorPolicy25satisfy_failed_allocationEmb->rgb(222,111,55)
_ZN18ParScanThreadState11trim_queuesEi->rgb(222,111,55)
_ZN18PhaseRemoveUselessC1EP8PhaseGVNP16Unique_Node_List->rgb(222,111,55)
_ZN19DirectCallGenerator8generateEP8JVMState->rgb(222,111,55)
_ZN19FreeListSpace_DCTOC23walk_mem_region_with_clE9MemRegionP8HeapWordS2_P16FilteringClosure->rgb(222,111,55)
_ZN19FreeListSpace_DCTOC27walk_mem_region_with_cl_parE9MemRegionP8HeapWordS2_P16FilteringClosure->rgb(222,111,55)
_ZN19NullCheckEliminator11iterate_oneEP10BlockBegin->rgb(222,111,55)
_ZN19NullCheckEliminator15merge_state_forEP10BlockBeginP8ValueSet->rgb(222,111,55)
_ZN19OopMapForCacheEntry11compute_mapEP6Thread->rgb(222,111,55)
_ZN20ClassLoaderDataGraph12roots_cld_doEP10CLDClosureS1_->rgb(222,111,55)
_ZN20SafepointSynchronize5beginEv->rgb(222,111,55)
_ZN21DirtyCardToOopClosure12do_MemRegionE9MemRegion->rgb(222,111,55)
_ZN21SimpleThresholdPolicy9is_matureEP6Method->rgb(222,111,55)
_ZN21ThreadStateTransition17trans_from_nativeE15JavaThreadState->rgb(222,111,55)
_ZN21java_lang_ClassLoader27non_reflection_class_loaderEP7oopDesc->rgb(222,111,55)
_ZN22MarkingCodeBlobClosure12do_code_blobEP8CodeBlob->rgb(222,111,55)
_ZN22Node_Backward_Iterator4nextEv->rgb(222,111,55)
_ZN22PredictedCallGenerator8generateEP8JVMState->rgb(222,111,55)
_ZN23AdvancedThresholdPolicy11select_taskEP12CompileQueue->rgb(222,111,55)
_ZN23PhaseAggressiveCoalesce13insert_copiesER7Matcher->rgb(222,111,55)
_ZN23PhaseAggressiveCoalesce8coalesceEP5Block->rgb(222,111,55)
_ZN24ClearNoncleanCardWrapper12do_MemRegionE9MemRegion->rgb(222,111,55)
_ZN24DebugInformationRecorder14describe_scopeEiP8ciMethodibbbP10DebugTokenS3_S3_->rgb(222,111,55)
_ZN25PhaseConservativeCoalesce10update_ifgEjjP8IndexSetS1_->rgb(222,111,55)
_ZN25PhaseConservativeCoalesce8coalesceEP5Block->rgb(222,111,55)
_ZN25PhaseConservativeCoalesce9copy_copyEP4NodeS1_P5Blockj->rgb(222,111,55)
_ZN26VM_GenCollectForAllocation4doitEv->rgb(222,111,55)
_ZN29ConcurrentMarkSweepGeneration20younger_refs_iterateEP16OopsInGenClosure->rgb(222,111,55)
_ZN2IR21eliminate_null_checksEv->rgb(222,111,55)
_ZN2IRC1EP11CompilationP8ciMethodi->rgb(222,111,55)
_ZN2os13javaTimeNanosEv->rgb(222,111,55)
_ZN2os14is_interruptedEP6Threadb->rgb(222,111,55)
_ZN2os14javaTimeMillisEv->rgb(222,111,55)
_ZN2os5Linux19safe_cond_timedwaitEP14pthread_cond_tP15pthread_mutex_tPK8timespec->rgb(222,111,55)
_ZN36ParRootScanWithBarrierTwoGensClosure6do_oopEPj->rgb(222,111,55)
_ZN4Dict6InsertEPvS0_b->rgb(222,111,55)
_ZN4Node12replace_edgeEPS_S0_->rgb(222,111,55)
_ZN4Node17disconnect_inputsEPS_P7Compile->rgb(222,111,55)
_ZN4Node18remove_dead_regionEP8PhaseGVNb->rgb(222,111,55)
_ZN4Node4growEj->rgb(222,111,55)
_ZN4Node7add_reqEPS_->rgb(222,111,55)
_ZN4Node7set_reqEjPS_->rgb(222,111,55)
_ZN4Node8out_growEj->rgb(222,111,55)
_ZN4Node9dominatesEPS_R9Node_List->rgb(222,111,55)
_ZN4NodeC2EPS_S0_S0_->rgb(222,111,55)
_ZN4NodeC2EPS_S0_S0_S0_->rgb(222,111,55)
_ZN4NodeC2Ej->rgb(222,111,55)
_ZN4Type3cmpEPKS_S1_->rgb(222,111,55)
_ZN4Type8hashconsEv->rgb(222,111,55)
_ZN5Arena4growEmN17AllocFailStrategy13AllocFailEnumE->rgb(222,111,55)
_ZN5ChunknwEmN17AllocFailStrategy13AllocFailEnumEm->rgb(222,111,55)
_ZN5Parse10array_loadE9BasicType->rgb(222,111,55)
_ZN5Parse10do_get_xxxEP4NodeP7ciFieldb->rgb(222,111,55)
_ZN5Parse10do_put_xxxEP4NodeP7ciFieldb->rgb(222,111,55)
_ZN5Parse11array_storeE9BasicType->rgb(222,111,55)
_ZN5Parse11build_exitsEv->rgb(222,111,55)
_ZN5Parse12do_checkcastEv->rgb(222,111,55)
_ZN5Parse12do_one_blockEv->rgb(222,111,55)
_ZN5Parse12merge_commonEPNS_5BlockEi->rgb(222,111,55)
_ZN5Parse13add_safepointEv->rgb(222,111,55)
_ZN5Parse13do_all_blocksEv->rgb(222,111,55)
_ZN5Parse13do_exceptionsEv->rgb(222,111,55)
_ZN5Parse13do_instanceofEv->rgb(222,111,55)
_ZN5Parse13set_parse_bciEi->rgb(222,111,55)
_ZN5Parse13throw_to_exitEP13SafePointNode->rgb(222,111,55)
_ZN5Parse14return_currentEP4Node->rgb(222,111,55)
_ZN5Parse15do_field_accessEbb->rgb(222,111,55)
_ZN5Parse15do_method_entryEv->rgb(222,111,55)
_ZN5Parse15do_one_bytecodeEv->rgb(222,111,55)
_ZN5Parse16array_addressingE9BasicTypeiPPK4Type->rgb(222,111,55)
_ZN5Parse16create_entry_mapEv->rgb(222,111,55)
_ZN5Parse19adjust_map_after_ifEN8BoolTest4maskEP4NodefPNS_5BlockES5_->rgb(222,111,55)
_ZN5Parse21sharpen_type_after_ifEN8BoolTest4maskEP4NodePK4TypeS3_S6_->rgb(222,111,55)
_ZN5Parse23catch_inline_exceptionsEP13SafePointNode->rgb(222,111,55)
_ZN5Parse5do_ifEN8BoolTest4maskEP4Node->rgb(222,111,55)
_ZN5Parse6do_newEv->rgb(222,111,55)
_ZN5Parse7do_callEv->rgb(222,111,55)
_ZN5Parse8do_exitsEv->rgb(222,111,55)
_ZN5Parse9do_ifnullEN8BoolTest4maskEP4Node->rgb(222,111,55)
_ZN5ParseC1EP8JVMStateP8ciMethodf->rgb(222,111,55)
_ZN5State12_sub_Op_AddPEPK4Node->rgb(222,111,55)
_ZN5State12_sub_Op_ConPEPK4Node->rgb(222,111,55)
_ZN5State17MachOperGeneratorEiP7Compile->rgb(222,111,55)
_ZN5State3DFAEiPK4Node->rgb(222,111,55)
_ZN5Trace12fixup_blocksER8PhaseCFG->rgb(222,111,55)
_ZN5ciEnv13lookup_methodEP13InstanceKlassS1_P6SymbolS3_N9Bytecodes4CodeE->rgb(222,111,55)
_ZN5ciEnv15register_methodEP8ciMethodiP11CodeOffsetsiP10CodeBufferiP9OopMapSetP21ExceptionHandlerTableP22ImplicitExceptionTableP16AbstractCompileribb8RTMState->rgb(222,111,55)
_ZN5ciEnv18get_field_by_indexEP15ciInstanceKlassi->rgb(222,111,55)
_ZN5ciEnv18get_klass_by_indexE18constantPoolHandleiRbP15ciInstanceKlass->rgb(222,111,55)
_ZN5ciEnv19get_method_by_indexE18constantPoolHandleiN9Bytecodes4CodeEP15ciInstanceKlass->rgb(222,111,55)
_ZN5ciEnv22get_klass_by_name_implEP7ciKlass18constantPoolHandleP8ciSymbolb->rgb(222,111,55)
_ZN5ciEnv22get_method_from_handleEP6Method->rgb(222,111,55)
_ZN5ciEnv23get_field_by_index_implEP15ciInstanceKlassi->rgb(222,111,55)
_ZN5ciEnv23get_klass_by_index_implE18constantPoolHandleiRbP15ciInstanceKlass->rgb(222,111,55)
_ZN5ciEnv24get_method_by_index_implE18constantPoolHandleiN9Bytecodes4CodeEP15ciInstanceKlass->rgb(222,111,55)
_ZN6Method16invocation_countEv->rgb(222,111,55)
_ZN6OopMap9deep_copyEv->rgb(222,111,55)
_ZN6OopMapC1ENS_13DeepCopyTokenEPS_->rgb(222,111,55)
_ZN6Parker4parkEbl->rgb(222,111,55)
_ZN6Parker6unparkEv->rgb(222,111,55)
_ZN6Symbol18increment_refcountEv->rgb(222,111,55)
_ZN6Thread14is_interruptedEPS_b->rgb(222,111,55)
_ZN7Compile10alias_typeEP7ciField->rgb(222,111,55)
_ZN7Compile11fill_bufferEP10CodeBufferPj->rgb(222,111,55)
_ZN7Compile11init_bufferEPj->rgb(222,111,55)
_ZN7Compile12BuildOopMapsEv->rgb(222,111,55)
_ZN7Compile12FillLocArrayEiP17MachSafePointNodeP4NodeP13GrowableArrayIP10ScopeValueES8_->rgb(222,111,55)
_ZN7Compile14call_generatorEP8ciMethodibP8JVMStatebfP7ciKlassbb->rgb(222,111,55)
_ZN7Compile14find_intrinsicEP8ciMethodb->rgb(222,111,55)
_ZN7Compile15find_alias_typeEPK7TypePtrbP7ciField->rgb(222,111,55)
_ZN7Compile15get_alias_indexEPK7TypePtr->rgb(222,111,55)
_ZN7Compile16shorten_branchesEPjRiS1_S1_->rgb(222,111,55)
_ZN7Compile17build_start_stateEP9StartNodePK8TypeFunc->rgb(222,111,55)
_ZN7Compile17optimize_inliningEP8ciMethodiP15ciInstanceKlassS1_PK10TypeOopPtrb->rgb(222,111,55)
_ZN7Compile17scratch_emit_sizeEPK4Node->rgb(222,111,55)
_ZN7Compile19FillExceptionTablesEjPjS0_P5Label->rgb(222,111,55)
_ZN7Compile19Process_OopMap_NodeEP8MachNodei->rgb(222,111,55)
_ZN7Compile20remove_useless_nodesER16Unique_Node_List->rgb(222,111,55)
_ZN7Compile21final_graph_reshapingEv->rgb(222,111,55)
_ZN7Compile21identify_useful_nodesER16Unique_Node_List->rgb(222,111,55)
_ZN7Compile24init_scratch_buffer_blobEi->rgb(222,111,55)
_ZN7Compile24remove_speculative_typesER12PhaseIterGVN->rgb(222,111,55)
_ZN7Compile26final_graph_reshaping_walkER10Node_StackP4NodeR20Final_Reshape_Counts->rgb(222,111,55)
_ZN7Compile6OutputEv->rgb(222,111,55)
_ZN7Compile8Code_GenEv->rgb(222,111,55)
_ZN7Compile8OptimizeEv->rgb(222,111,55)
_ZN7CompileC1EP5ciEnvP10C2CompilerP8ciMethodibbb->rgb(222,111,55)
_ZN7ConNode4makeEP7CompilePK4Type->rgb(222,111,55)
_ZN7ConNodeC2EPK4Type->rgb(222,111,55)
_ZN7IRScopeC1EP11CompilationPS_iP8ciMethodib->rgb(222,111,55)
_ZN7Matcher10Label_RootEPK4NodeP5StatePS0_S2_->rgb(222,111,55)
_ZN7Matcher10ReduceInstEP5StateiRP4Node->rgb(222,111,55)
_ZN7Matcher10match_treeEPK4Node->rgb(222,111,55)
_ZN7Matcher11find_sharedEP4Node->rgb(222,111,55)
_ZN7Matcher19ReduceInst_InteriorEP5StateiRP4NodeP8MachNodej->rgb(222,111,55)
_ZN7Matcher20match_rule_supportedEi->rgb(222,111,55)
_ZN7Matcher5matchEv->rgb(222,111,55)
_ZN7Matcher5xformEP4Nodei->rgb(222,111,55)
_ZN7MatcherC1Ev->rgb(222,111,55)
_ZN7MemNode12Ideal_commonEP8PhaseGVNb->rgb(222,111,55)
_ZN7MemNode21all_controls_dominateEP4NodeS1_->rgb(222,111,55)
_ZN7MemNode21optimize_memory_chainEP4NodePK7TypePtrS1_P8PhaseGVN->rgb(222,111,55)
_ZN7MemNode23Ideal_common_DU_postCCPEP8PhaseCCPP4NodeS3_->rgb(222,111,55)
_ZN7MemNode28optimize_simple_memory_chainEP4NodePK10TypeOopPtrS1_P8PhaseGVN->rgb(222,111,55)
_ZN7Monitor28lock_without_safepoint_checkEv->rgb(222,111,55)
_ZN7Monitor4waitEblb->rgb(222,111,55)
_ZN7Monitor5ILockEP6Thread->rgb(222,111,55)
_ZN7Monitor5IWaitEP6Threadl->rgb(222,111,55)
_ZN7Monitor6unlockEv->rgb(222,111,55)
_ZN7NTarjan3DFSEPS_R9VectorSetP14PhaseIdealLoopPj->rgb(222,111,55)
_ZN7OopFlow13build_oop_mapEP4NodeiP13PhaseRegAllocPi->rgb(222,111,55)
_ZN7OopFlow13compute_reachEP13PhaseRegAllociP4Dict->rgb(222,111,55)
_ZN7PhiNode4makeEP4NodeS1_PK4TypePK7TypePtr->rgb(222,111,55)
_ZN7PhiNode5IdealEP8PhaseGVNb->rgb(222,111,55)
_ZN7RegMask13clear_to_setsEi->rgb(222,111,55)
_ZN7RegMask13smear_to_setsEi->rgb(222,111,55)
_ZN7Threads25possibly_parallel_oops_doEP10OopClosureP10CLDClosureP15CodeBlobClosure->rgb(222,111,55)
_ZN7TypeAry4makeEPK4TypePK7TypeIntb->rgb(222,111,55)
_ZN7ciField9will_linkEP15ciInstanceKlassN9Bytecodes4CodeE->rgb(222,111,55)
_ZN7ciFieldC1EP15ciInstanceKlassi->rgb(222,111,55)
_ZN7ciFieldC1EP15fieldDescriptor->rgb(222,111,55)
_ZN7ciKlass11java_mirrorEv->rgb(222,111,55)
_ZN7ciKlass14is_subclass_ofEPS_->rgb(222,111,55)
_ZN7nmethod11new_nmethodE12methodHandleiiP11CodeOffsetsiP24DebugInformationRecorderP12DependenciesP10CodeBufferiP9OopMapSetP21ExceptionHandlerTableP22ImplicitExceptionTableP16AbstractCompileri->rgb(222,111,55)
_ZN7nmethod19fix_oop_relocationsEPhS0_b->rgb(222,111,55)
_ZN7nmethod21cleanup_inline_cachesEv->rgb(222,111,55)
_ZN7nmethod21get_deopt_original_pcEPK5frame->rgb(222,111,55)
_ZN7nmethod24oops_do_marking_epilogueEv->rgb(222,111,55)
_ZN7nmethod7oops_doEP10OopClosureb->rgb(222,111,55)
_ZN7nmethodC1EP6MethodiiiP11CodeOffsetsiP24DebugInformationRecorderP12DependenciesP10CodeBufferiP9OopMapSetP21ExceptionHandlerTableP22ImplicitExceptionTableP16AbstractCompileri->rgb(222,111,55)
_ZN8AddPNode8IdentityEP14PhaseTransform->rgb(222,111,55)
_ZN8BoolNode5IdealEP8PhaseGVNb->rgb(222,111,55)
_ZN8CallInfo10set_commonE11KlassHandleS0_12methodHandleS1_NS_8CallKindEiP6Thread->rgb(222,111,55)
_ZN8CallInfo11set_virtualE11KlassHandleS0_12methodHandleS1_iP6Thread->rgb(222,111,55)
_ZN8CallNode5IdealEP8PhaseGVNb->rgb(222,111,55)
_ZN8CmpINode5IdealEP8PhaseGVNb->rgb(222,111,55)
_ZN8CmpPNode5IdealEP8PhaseGVNb->rgb(222,111,55)
_ZN8CodeBlobC2EPKcP10CodeBufferiiiiP9OopMapSet->rgb(222,111,55)
_ZN8CodeHeap8allocateEmb->rgb(222,111,55)
_ZN8Compiler14compile_methodEP5ciEnvP8ciMethodi->rgb(222,111,55)
_ZN8GraphKit11clean_stackEi->rgb(222,111,55)
_ZN8GraphKit12new_instanceEP4NodeS1_PS1_b->rgb(222,111,55)
_ZN8GraphKit13add_predicateEi->rgb(222,111,55)
_ZN8GraphKit13cast_not_nullEP4Nodeb->rgb(222,111,55)
_ZN8GraphKit13gen_checkcastEP4NodeS1_PS1_->rgb(222,111,55)
_ZN8GraphKit13set_map_cloneEP13SafePointNode->rgb(222,111,55)
_ZN8GraphKit13uncommon_trapEiP7ciKlassPKcbb->rgb(222,111,55)
_ZN8GraphKit14gen_instanceofEP4NodeS1_b->rgb(222,111,55)
_ZN8GraphKit14null_check_oopEP4NodePS1_bb->rgb(222,111,55)
_ZN8GraphKit15store_to_memoryEP4NodeS1_S1_9BasicTypeiN7MemNode6MemOrdEb->rgb(222,111,55)
_ZN8GraphKit16kill_dead_localsEv->rgb(222,111,55)
_ZN8GraphKit17gen_subtype_checkEP4NodeS1_->rgb(222,111,55)
_ZN8GraphKit17make_runtime_callEiPK8TypeFuncPhPKcPK7TypePtrP4NodeSA_SA_SA_SA_SA_SA_SA_->rgb(222,111,55)
_ZN8GraphKit17make_slow_call_exEP4NodeP15ciInstanceKlassbb->rgb(222,111,55)
_ZN8GraphKit17null_check_commonEP4Node9BasicTypebPS1_->rgb(222,111,55)
_ZN8GraphKit18add_predicate_implEN14Deoptimization11DeoptReasonEi->rgb(222,111,55)
_ZN8GraphKit19add_safepoint_edgesEP13SafePointNodeb->rgb(222,111,55)
_ZN8GraphKit21array_element_addressEP4NodeS1_9BasicTypePK7TypeInt->rgb(222,111,55)
_ZN8GraphKit22round_double_argumentsEP8ciMethod->rgb(222,111,55)
_ZN8GraphKit24combine_exception_statesEP13SafePointNodeS1_->rgb(222,111,55)
_ZN8GraphKit25set_output_for_allocationEP12AllocateNodePK10TypeOopPtrb->rgb(222,111,55)
_ZN8GraphKit25set_results_for_java_callEP12CallJavaNodeb->rgb(222,111,55)
_ZN8GraphKit38set_predefined_output_for_runtime_callEP4NodeS1_PK7TypePtr->rgb(222,111,55)
_ZN8GraphKit42record_profiled_parameters_for_speculationEv->rgb(222,111,55)
_ZN8GraphKit9clone_mapEv->rgb(222,111,55)
_ZN8GraphKit9store_oopEP4NodeS1_S1_PK7TypePtrS1_PK10TypeOopPtr9BasicTypebN7MemNode6MemOrdE->rgb(222,111,55)
_ZN8IndexSet10free_blockEj->rgb(222,111,55)
_ZN8IndexSet10initializeEj->rgb(222,111,55)
_ZN8IndexSet18populate_free_listEv->rgb(222,111,55)
_ZN8IndexSet22alloc_block_containingEj->rgb(222,111,55)
_ZN8IndexSet9lrg_unionEjjjPK8PhaseIFGRK7RegMask->rgb(222,111,55)
_ZN8IndexSetC1EPS_->rgb(222,111,55)
_ZN8LoadNode4makeER8PhaseGVNP4NodeS3_S3_PK7TypePtrPK4Type9BasicTypeN7MemNode6MemOrdENS_17ControlDependencyE->rgb(222,111,55)
_ZN8NodeHash11hash_deleteEPK4Node->rgb(222,111,55)
_ZN8NodeHash16hash_find_insertEP4Node->rgb(222,111,55)
_ZN8NodeHash4growEv->rgb(222,111,55)
_ZN8PhaseCCP12do_transformEv->rgb(222,111,55)
_ZN8PhaseCCP14transform_onceEP4Node->rgb(222,111,55)
_ZN8PhaseCCP7analyzeEv->rgb(222,111,55)
_ZN8PhaseCCP9transformEP4Node->rgb(222,111,55)
_ZN8PhaseCFG11is_uncommonEPK5Block->rgb(222,111,55)
_ZN8PhaseCFG13schedule_lateER9VectorSetR9Node_List->rgb(222,111,55)
_ZN8PhaseCFG14schedule_localEP5BlockR13GrowableArrayIiER9VectorSet->rgb(222,111,55)
_ZN8PhaseCFG17latency_from_usesEP4Node->rgb(222,111,55)
_ZN8PhaseCFG18global_code_motionEv->rgb(222,111,55)
_ZN8PhaseCFG19remove_empty_blocksEv->rgb(222,111,55)
_ZN8PhaseCFG21do_global_code_motionEv->rgb(222,111,55)
_ZN8PhaseCFG23insert_anti_dependencesEP5BlockP4Nodeb->rgb(222,111,55)
_ZN8PhaseCFGC1EP5ArenaP8RootNodeR7Matcher->rgb(222,111,55)
_ZN8PhaseGVN20transform_no_reclaimEP4Node->rgb(222,111,55)
_ZN8PhaseIFG11remove_nodeEj->rgb(222,111,55)
_ZN8PhaseIFG24Compute_Effective_DegreeEv->rgb(222,111,55)
_ZN8PhaseIFG4initEj->rgb(222,111,55)
_ZN8PhaseIFG8SquareUpEv->rgb(222,111,55)
_ZN8PhaseIFG9re_insertEj->rgb(222,111,55)
_ZN8Runtime116counter_overflowEP10JavaThreadiP6Method->rgb(222,111,55)
_ZN8TypeFunc4makeEP8ciMethod->rgb(222,111,55)
_ZN8VMThread18evaluate_operationEP12VM_Operation->rgb(222,111,55)
_ZN8VMThread3runEv->rgb(222,111,55)
_ZN8VMThread4loopEv->rgb(222,111,55)
_ZN8ciMethod11method_dataEv->rgb(222,111,55)
_ZN8ciMethod14resolve_invokeEP7ciKlassS1_b->rgb(222,111,55)
_ZN8ciMethod15liveness_at_bciEi->rgb(222,111,55)
_ZN8ciMethod17get_flow_analysisEv->rgb(222,111,55)
_ZN8ciMethod17get_method_at_bciEiRbPP11ciSignature->rgb(222,111,55)
_ZN8ciMethod17has_compiled_codeEv->rgb(222,111,55)
_ZN8ciMethod18ensure_method_dataEv->rgb(222,111,55)
_ZN8ciMethod22live_local_oops_at_bciEi->rgb(222,111,55)
_ZN8ciMethod23find_monomorphic_targetEP15ciInstanceKlassS1_S1_b->rgb(222,111,55)
_ZN8ciMethod27interpreter_call_site_countEi->rgb(222,111,55)
_ZN8ciMethod8get_bceaEv->rgb(222,111,55)
_ZN8ciMethodC1E12methodHandleP15ciInstanceKlass->rgb(222,111,55)
_ZN9Assembler14locate_operandEPhNS_12WhichOperandE->rgb(222,111,55)
_ZN9ChunkPool8allocateEmN17AllocFailStrategy13AllocFailEnumE->rgb(222,111,55)
_ZN9CodeCache12next_nmethodEP8CodeBlob->rgb(222,111,55)
_ZN9CodeCache25scavenge_root_nmethods_doEP15CodeBlobClosure->rgb(222,111,55)
_ZN9CodeCache8allocateEib->rgb(222,111,55)
_ZN9JavaCalls11call_helperEP9JavaValueP12methodHandleP17JavaCallArgumentsP6Thread->rgb(222,111,55)
_ZN9JavaCalls12call_virtualEP9JavaValue11KlassHandleP6SymbolS4_P17JavaCallArgumentsP6Thread->rgb(222,111,55)
_ZN9JavaCalls12call_virtualEP9JavaValue6Handle11KlassHandleP6SymbolS5_P6Thread->rgb(222,111,55)
_ZN9Optimizer21eliminate_null_checksEv->rgb(222,111,55)
_ZN9PhaseLive11add_liveoutEP5BlockP8IndexSetR9VectorSet->rgb(222,111,55)
_ZN9PhaseLive7computeEj->rgb(222,111,55)
_ZN9StoreNode4makeER8PhaseGVNP4NodeS3_S3_PK7TypePtrS3_9BasicTypeN7MemNode6MemOrdE->rgb(222,111,55)
_ZN9StoreNode5IdealEP8PhaseGVNb->rgb(222,111,55)
_ZN9StoreNodeC2EP4NodeS1_S1_PK7TypePtrS1_N7MemNode6MemOrdE->rgb(222,111,55)
_ZN9TypeTuple10make_rangeEP11ciSignature->rgb(222,111,55)
_ZN9TypeTuple11make_domainEP15ciInstanceKlassP11ciSignature->rgb(222,111,55)
_ZN9VectorSetrSEj->rgb(222,111,55)
_ZN9vmSymbols8find_sidEP6Symbol->rgb(222,111,55)
_ZNK10NativeCall11destinationEv->rgb(222,111,55)
_ZNK10RegionNode21is_unreachable_regionEP8PhaseGVN->rgb(222,111,55)
_ZNK10TypeAryPtr10add_offsetEl->rgb(222,111,55)
_ZNK10TypeOopPtr13filter_helperEPK4Typeb->rgb(222,111,55)
_ZNK10TypeOopPtr5xmeetEPK4Type->rgb(222,111,55)
_ZNK10jmpDirNode13is_block_projEv->rgb(222,111,55)
_ZNK11EncodePNode6OpcodeEv->rgb(222,111,55)
_ZNK11PCTableNode6pinnedEv->rgb(222,111,55)
_ZNK11TypeInstPtr10add_offsetEl->rgb(222,111,55)
_ZNK11TypeInstPtr12xmeet_helperEPK4Type->rgb(222,111,55)
_ZNK11TypeInstPtr2eqEPK4Type->rgb(222,111,55)
_ZNK12MachProjNode9ideal_regEv->rgb(222,111,55)
_ZNK13InstanceKlass13vtable_lengthEv->rgb(222,111,55)
_ZNK13InstanceKlass22uncached_lookup_methodEP6SymbolS1_N5Klass16MethodLookupModeE->rgb(222,111,55)
_ZNK13LoadRangeNode6OpcodeEv->rgb(222,111,55)
_ZNK13StrEqualsNode6OpcodeEv->rgb(222,111,55)
_ZNK13addP_rRegNode12ideal_OpcodeEv->rgb(222,111,55)
_ZNK14MachEpilogNode4emitER10CodeBufferP13PhaseRegAlloc->rgb(222,111,55)
_ZNK14PhaseIdealLoop8get_loopEP4Node->rgb(222,111,55)
_ZNK14PhaseIdealLoop9dom_depthEP4Node->rgb(222,111,55)
_ZNK15ciInstanceKlass17is_instance_klassEv->rgb(222,111,55)
_ZNK15ciInstanceKlass19is_java_lang_ObjectEv->rgb(222,111,55)
_ZNK15ciObjArrayKlass18is_obj_array_klassEv->rgb(222,111,55)
_ZNK17MachSpillCopyNode11bottom_typeEv->rgb(222,111,55)
_ZNK18testN_mem_reg0Node12ideal_OpcodeEv->rgb(222,111,55)
_ZNK24CallStaticJavaDirectNode15oper_input_baseEv->rgb(222,111,55)
_ZNK24CompactibleFreeListSpace10block_sizeEPK8HeapWord->rgb(222,111,55)
_ZNK26decodeHeapOop_not_nullNode12ideal_OpcodeEv->rgb(222,111,55)
_ZNK30BlockOffsetArrayNonContigSpace18block_start_unsafeEPKv->rgb(222,111,55)
_ZNK4Node10match_edgeEj->rgb(222,111,55)
_ZNK4Node13rematerializeEv->rgb(222,111,55)
_ZNK4Node27needs_anti_dependence_checkEv->rgb(222,111,55)
_ZNK4Node4hashEv->rgb(222,111,55)
_ZNK4Node4jvmsEv->rgb(222,111,55)
_ZNK4Node5cloneEv->rgb(222,111,55)
_ZNK4Node6is_CFGEv->rgb(222,111,55)
_ZNK4Node6pinnedEv->rgb(222,111,55)
_ZNK4Node7size_ofEv->rgb(222,111,55)
_ZNK4Type11meet_helperEPKS_b->rgb(222,111,55)
_ZNK4Type12higher_equalEPKS_->rgb(222,111,55)
_ZNK5Arena8containsEPKv->rgb(222,111,55)
_ZNK5Klass14is_subclass_ofEPKS_->rgb(222,111,55)
_ZNK5frame25sender_for_compiled_frameEP11RegisterMap->rgb(222,111,55)
_ZNK5frame6senderEP11RegisterMap->rgb(222,111,55)
_ZNK6Method17is_not_compilableEi->rgb(222,111,55)
_ZNK6Symbol11as_C_stringEv->rgb(222,111,55)
_ZNK7AddNode4hashEv->rgb(222,111,55)
_ZNK7Compile18flatten_alias_typeEPK7TypePtr->rgb(222,111,55)
_ZNK7MemNode20can_see_stored_valueEP4NodeP14PhaseTransform->rgb(222,111,55)
_ZNK7PhiNode12slice_memoryEPK7TypePtr->rgb(222,111,55)
_ZNK7PhiNode5ValueEP14PhaseTransform->rgb(222,111,55)
_ZNK7PhiNode6pinnedEv->rgb(222,111,55)
_ZNK7RegMask13is_bound_pairEv->rgb(222,111,55)
_ZNK7RegMask4SizeEv->rgb(222,111,55)
_ZNK7RegMask5is_UPEv->rgb(222,111,55)
_ZNK7TypeInt5xdualEv->rgb(222,111,55)
_ZNK7TypeInt5xmeetEPK4Type->rgb(222,111,55)
_ZNK8AddPNode11bottom_typeEv->rgb(222,111,55)
_ZNK8AddPNode5ValueEP14PhaseTransform->rgb(222,111,55)
_ZNK8CallNode5ValueEP14PhaseTransform->rgb(222,111,55)
_ZNK8CodeBlob9is_zombieEv->rgb(222,111,55)
_ZNK8CodeHeap9next_freeEP9HeapBlock->rgb(222,111,55)
_ZNK8JVMState13clone_shallowEP7Compile->rgb(222,111,55)
_ZNK8LoadNode5ValueEP14PhaseTransform->rgb(222,111,55)
_ZNK8MachNode17get_base_and_dispERlRPK7TypePtr->rgb(222,111,55)
_ZNK8MachNode8adr_typeEv->rgb(222,111,55)
_ZNK8MachOper14index_positionEv->rgb(222,111,55)
_ZNK8ProjNode6pinnedEv->rgb(222,111,55)
_ZNK8TypeLong5xmeetEPK4Type->rgb(222,111,55)
_ZNK8TypeNode11bottom_typeEv->rgb(222,111,55)
_ZNK8TypeNode4hashEv->rgb(222,111,55)
_ZNK8TypeNode5ValueEP14PhaseTransform->rgb(222,111,55)
_ZNK8TypeNode9ideal_regEv->rgb(222,111,55)
_ZNK9CProjNode13is_block_projEv->rgb(222,111,55)
_ZNK9LoadLNode4hashEv->rgb(222,111,55)
_ZNK9MultiNode6is_CFGEv->rgb(222,111,55)
_ZNK9MultiNode8proj_outEj->rgb(222,111,55)
_ZNK9loadNNode4ruleEv->rgb(222,111,55)
_ZNVK8Metadata8is_klassEv->rgb(222,111,55)
__alloc_pages_nodemask->rgb(222,99,99)
__alloc_skb->rgb(222,99,99)
__clock_gettime->rgb(222,99,99)
__dev_queue_xmit->rgb(222,99,99)
__do_fault->rgb(222,99,99)
__do_page_fault->rgb(222,99,99)
__do_softirq->rgb(222,99,99)
__ext4_get_inode_loc->rgb(222,99,99)
__fdget->rgb(222,99,99)
__fdget_pos->rgb(222,99,99)
__fget->rgb(222,99,99)
__fget_light->rgb(222,99,99)
__fsnotify_parent->rgb(222,99,99)
__getblk_gfp->rgb(222,99,99)
__hrtimer_init->rgb(222,99,99)
__inet_lookup_established->rgb(222,99,99)
__ip_local_out_sk->rgb(222,99,99)
__ip_route_output_key->rgb(222,99,99)
__kfree_skb->rgb(222,99,99)
__lll_unlock_wake->rgb(222,99,99)
__local_bh_enable_ip->rgb(222,99,99)
__madvise->rgb(222,99,99)
__mark_inode_dirty->rgb(222,99,99)
__netif_receive_skb->rgb(222,99,99)
__netif_receive_skb_core->rgb(222,99,99)
__nf_conntrack_find_get->rgb(222,99,99)
__nf_ct_refresh_acct->rgb(222,99,99)
__pthread_disable_asynccancel->rgb(222,99,99)
__pthread_enable_asynccancel->rgb(222,99,99)
__pthread_mutex_cond_lock->rgb(222,99,99)
__pthread_mutex_unlock_usercnt->rgb(222,99,99)
__radix_tree_lookup->rgb(222,99,99)
__sched_yield->rgb(222,99,99)
__schedule->rgb(222,99,99)
__slab_alloc->rgb(222,99,99)
__slab_free->rgb(222,99,99)
__srcu_read_lock->rgb(222,99,99)
__tcp_push_pending_frames->rgb(222,99,99)
__unqueue_futex->rgb(222,99,99)
__vdso_clock_gettime->rgb(222,99,99)
__vdso_gettimeofday->rgb(222,99,99)
__vfs_read->rgb(222,99,99)
__vfs_write->rgb(222,99,99)
__wake_up_sync_key->rgb(222,99,99)
_decode_session4->rgb(222,99,99)
_new_array_Java->rgb(222,99,99)
_raw_spin_lock->rgb(222,99,99)
_raw_spin_lock_irq->rgb(222,99,99)
_raw_spin_unlock_bh->rgb(222,99,99)
_raw_spin_unlock_irqrestore->rgb(222,99,99)
aa_file_perm->rgb(222,99,99)
alloc_pages_vma->rgb(222,99,99)
apic_timer_interrupt->rgb(222,99,99)
apparmor_file_permission->rgb(222,99,99)
apparmor_socket_sendmsg->rgb(222,99,99)
arena_avail_tree_insert->rgb(222,99,99)
arena_run_alloc_large_helper->rgb(222,99,99)
arena_run_split_remove->rgb(222,99,99)
async_page_fault->rgb(222,99,99)
bictcp_acked->rgb(222,99,99)
call_stub->rgb(222,99,99)
call_timer_fn->rgb(222,99,99)
ch/qos/logback/classic/Logger:::isErrorEnabled->rgb(99,222,99)
clear_page_c_e->rgb(222,99,99)
cmpxchg_double_slab.isra.57->rgb(222,99,99)
com/codahale/metrics/WeightedSnapshot:::init->rgb(99,222,99)
com/google/common/collect/AbstractIndexedListIterator:::hasNext->rgb(99,222,99)
com/google/common/collect/AbstractIterator:::hasNext->rgb(99,222,99)
com/google/common/collect/AbstractMapBasedMultimap:::put->rgb(99,222,99)
com/google/common/collect/Collections2$TransformedCollection:::iterator->rgb(99,222,99)
com/google/common/collect/HashMultimap:::createCollection->rgb(99,222,99)
com/google/common/collect/ImmutableCollection:::asList->rgb(99,222,99)
com/google/common/collect/ImmutableList:::asImmutableList->rgb(99,222,99)
com/google/common/collect/ImmutableList:::copyOf->rgb(99,222,99)
com/google/common/collect/ImmutableMap:::entrySet->rgb(99,222,99)
com/google/common/collect/Iterables$2:::iterator->rgb(99,222,99)
com/google/common/collect/Iterables$6:::iterator->rgb(99,222,99)
com/google/common/collect/Iterables$8:::iterator->rgb(99,222,99)
com/google/common/collect/Iterators$12:::hasNext->rgb(99,222,99)
com/google/common/collect/Iterators$1:::hasNext->rgb(99,222,99)
com/google/common/collect/Iterators$5:::hasNext->rgb(99,222,99)
com/google/common/collect/Iterators$5:::next->rgb(99,222,99)
com/google/common/collect/Iterators$MergingIterator:::init->rgb(99,222,99)
com/google/common/collect/Lists:::transform->rgb(99,222,99)
com/google/common/collect/MapMakerInternalMap$Segment:::get->rgb(99,222,99)
com/google/common/collect/MapMakerInternalMap$Segment:::getEntry->rgb(99,222,99)
com/google/common/collect/MapMakerInternalMap$Segment:::runLockedCleanup->rgb(99,222,99)
com/google/common/collect/MapMakerInternalMap:::rehash->rgb(99,222,99)
com/google/common/collect/RegularImmutableMap:::get->rgb(99,222,99)
com/google/common/collect/SingletonImmutableList:::iterator->rgb(99,222,99)
com/google/common/collect/TransformedIterator:::hasNext->rgb(99,222,99)
com/google/common/collect/TransformedIterator:::next->rgb(99,222,99)
com/googlecode/concurrentlinkedhashmap/ConcurrentLinkedHashMap:::recordRead->rgb(99,222,99)
com/sun/jmx/mbeanserver/GetPropertyAction:::run->rgb(99,222,99)
common_file_perm->rgb(222,99,99)
copy_to_iter->rgb(222,99,99)
counter_overflow Runtime1 stub->rgb(222,99,99)
dev_hard_start_xmit->rgb(222,99,99)
dev_queue_xmit_sk->rgb(222,99,99)
do_async_page_fault->rgb(222,99,99)
do_futex->rgb(222,99,99)
do_iter_readv_writev->rgb(222,99,99)
do_page_mkwrite->rgb(222,99,99)
do_readv_writev->rgb(222,99,99)
do_softirq.part.19->rgb(222,99,99)
do_softirq_own_stack->rgb(222,99,99)
drop_futex_key_refs.isra.13->rgb(222,99,99)
enqueue_to_backlog->rgb(222,99,99)
entry_SYSCALL_64->rgb(222,99,99)
entry_SYSCALL_64_fastpath->rgb(222,99,99)
ep_poll->rgb(222,99,99)
ep_scan_ready_list->rgb(222,99,99)
epoll_wait->rgb(222,99,99)
epoll_wait@plt->rgb(222,99,99)
eventfd_ctx_read->rgb(222,99,99)
eventfd_poll->rgb(222,99,99)
eventfd_read->rgb(222,99,99)
eventfd_write->rgb(222,99,99)
ext4_dirty_inode->rgb(222,99,99)
ext4_mark_inode_dirty->rgb(222,99,99)
ext4_page_mkwrite->rgb(222,99,99)
ext4_reserve_inode_write->rgb(222,99,99)
fib_table_lookup->rgb(222,99,99)
file_update_time->rgb(222,99,99)
filemap_fault->rgb(222,99,99)
find_get_entry->rgb(222,99,99)
find_vma->rgb(222,99,99)
find_vma_prev->rgb(222,99,99)
finish_task_switch->rgb(222,99,99)
flush_icache_stub->rgb(222,99,99)
free_pages_and_swap_cache->rgb(222,99,99)
fsnotify->rgb(222,99,99)
futex_wait->rgb(222,99,99)
futex_wait_queue_me->rgb(222,99,99)
futex_wait_setup->rgb(222,99,99)
futex_wake->rgb(222,99,99)
futex_wake_op->rgb(222,99,99)
generic_update_time->rgb(222,99,99)
get_futex_key->rgb(222,99,99)
get_futex_key_refs.isra.12->rgb(222,99,99)
get_page_from_freelist->rgb(222,99,99)
handle_mm_fault->rgb(222,99,99)
hash_futex->rgb(222,99,99)
hrtimer_active->rgb(222,99,99)
hrtimer_cancel->rgb(222,99,99)
hrtimer_init->rgb(222,99,99)
hrtimer_start_range_ns->rgb(222,99,99)
hrtimer_try_to_cancel->rgb(222,99,99)
inet_addr_type->rgb(222,99,99)
inet_recvmsg->rgb(222,99,99)
inet_sendmsg->rgb(222,99,99)
int_careful->rgb(222,99,99)
io/netty/buffer/AbstractByteBuf:::ensureWritable->rgb(99,222,99)
io/netty/buffer/AbstractByteBuf:::writeBytes->rgb(99,222,99)
io/netty/buffer/AbstractByteBufAllocator:::toLeakAwareBuffer->rgb(99,222,99)
io/netty/buffer/AbstractReferenceCountedByteBuf:::release->rgb(99,222,99)
io/netty/buffer/PoolArena$DirectArena:::memoryCopy->rgb(99,222,99)
io/netty/buffer/PoolArena:::allocate->rgb(99,222,99)
io/netty/buffer/PoolThreadCache:::allocate->rgb(99,222,99)
io/netty/channel/AbstractChannelHandlerContext$8:::run->rgb(99,222,99)
io/netty/channel/AbstractChannelHandlerContext$9:::run->rgb(99,222,99)
io/netty/channel/AbstractChannelHandlerContext:::fireChannelRead->rgb(99,222,99)
io/netty/channel/AbstractChannelHandlerContext:::fireChannelReadComplete->rgb(99,222,99)
io/netty/channel/ChannelInboundHandlerAdapter:::channelReadComplete->rgb(99,222,99)
io/netty/channel/ChannelOutboundBuffer:::remove->rgb(99,222,99)
io/netty/channel/ChannelOutboundBuffer:::removeBytes->rgb(99,222,99)
io/netty/channel/ChannelOutboundHandlerAdapter:::flush->rgb(99,222,99)
io/netty/channel/ChannelOutboundHandlerAdapter:::read->rgb(99,222,99)
io/netty/channel/DefaultChannelPipeline$HeadContext:::flush->rgb(99,222,99)
io/netty/channel/DefaultChannelPipeline$TailContext:::channelReadComplete->rgb(99,222,99)
io/netty/channel/epoll/EpollEventLoop:::run->rgb(99,222,99)
io/netty/channel/epoll/EpollSocketChannel:::doWrite->rgb(99,222,99)
io/netty/channel/epoll/Native:::epollWait->rgb(99,222,99)
io/netty/channel/epoll/Native:::eventFdWrite->rgb(99,222,99)
io/netty/channel/epoll/Native:::readAddress->rgb(99,222,99)
io/netty/channel/epoll/Native:::writevAddresses->rgb(99,222,99)
io/netty/handler/codec/ByteToMessageDecoder:::channelRead->rgb(99,222,99)
io/netty/handler/codec/ByteToMessageDecoder:::channelReadComplete->rgb(99,222,99)
io/netty/handler/codec/MessageToMessageDecoder:::channelRead->rgb(99,222,99)
io/netty/handler/codec/MessageToMessageEncoder:::write->rgb(99,222,99)
io/netty/util/Recycler:::get->rgb(99,222,99)
io/netty/util/concurrent/FastThreadLocal:::get->rgb(99,222,99)
io/netty/util/concurrent/ScheduledFutureTask:::deadlineNanos->rgb(99,222,99)
io/netty/util/concurrent/ScheduledFutureTask:::run->rgb(99,222,99)
io/netty/util/concurrent/SingleThreadEventExecutor:::runAllTasks->rgb(99,222,99)
io/netty/util/internal/InternalThreadLocalMap:::get->rgb(99,222,99)
io/netty/util/internal/InternalThreadLocalMap:::indexedVariable->rgb(99,222,99)
io/netty/util/internal/UnsafeAtomicReferenceFieldUpdater:::get->rgb(99,222,99)
ip_finish_output->rgb(222,99,99)
ip_finish_output2->rgb(222,99,99)
ip_local_deliver->rgb(222,99,99)
ip_local_deliver_finish->rgb(222,99,99)
ip_local_out_sk->rgb(222,99,99)
ip_output->rgb(222,99,99)
ip_queue_xmit->rgb(222,99,99)
ip_rcv->rgb(222,99,99)
ip_rcv_finish->rgb(222,99,99)
ip_route_me_harder->rgb(222,99,99)
ip_route_output_flow->rgb(222,99,99)
ipt_do_table->rgb(222,99,99)
iptable_filter_hook->rgb(222,99,99)
iptable_nat_ipv4_local_fn->rgb(222,99,99)
ipv4_conntrack_local->rgb(222,99,99)
ipv4_mtu->rgb(222,99,99)
irq_exit->rgb(222,99,99)
itable stub->rgb(222,99,99)
java->rgb(222,99,99)
java/io/ExpiringCache:::get->rgb(99,222,99)
java/io/File:::getCanonicalPath->rgb(99,222,99)
java/io/FilePermission$1:::run->rgb(99,222,99)
java/io/UnixFileSystem:::canonicalize->rgb(99,222,99)
java/lang/Enum:::compareTo->rgb(99,222,99)
java/lang/Integer:::hashCode->rgb(99,222,99)
java/lang/Integer:::parseInt->rgb(99,222,99)
java/lang/Long:::compareTo->rgb(99,222,99)
java/lang/Long:::toString->rgb(99,222,99)
java/lang/Object:::hashCode->rgb(99,222,99)
java/lang/Object:::init->rgb(99,222,99)
java/lang/String:::split->rgb(99,222,99)
java/lang/String:::toLowerCase->rgb(99,222,99)
java/lang/ThreadLocal$ThreadLocalMap:::getEntryAfterMiss->rgb(99,222,99)
java/lang/ThreadLocal:::getMap->rgb(99,222,99)
java/lang/management/MemoryUsage:::init->rgb(99,222,99)
java/lang/reflect/Method:::invoke->rgb(99,222,99)
java/nio/ByteBuffer:::init->rgb(99,222,99)
java/nio/DirectByteBuffer:::get->rgb(99,222,99)
java/nio/DirectByteBuffer:::putLong->rgb(99,222,99)
java/nio/DirectByteBufferR:::duplicate->rgb(99,222,99)
java/nio/HeapByteBuffer:::duplicate->rgb(99,222,99)
java/nio/HeapByteBuffer:::get->rgb(99,222,99)
java/nio/charset/CharsetEncoder:::init->rgb(99,222,99)
java/util/AbstractCollection:::init->rgb(99,222,99)
java/util/AbstractCollection:::isEmpty->rgb(99,222,99)
java/util/ArrayDeque:::add->rgb(99,222,99)
java/util/ArrayList$Itr:::init->rgb(99,222,99)
java/util/ArrayList$Itr:::next->rgb(99,222,99)
java/util/ArrayList:::isEmpty->rgb(99,222,99)
java/util/ArrayList:::iterator->rgb(99,222,99)
java/util/Arrays:::equals->rgb(99,222,99)
java/util/Collections$1:::next->rgb(99,222,99)
java/util/Collections$EmptyIterator:::hasNext->rgb(99,222,99)
java/util/Collections$EmptySet:::iterator->rgb(99,222,99)
java/util/Collections$EmptySet:::toArray->rgb(99,222,99)
java/util/Collections:::unmodifiableSet->rgb(99,222,99)
java/util/Formatter$FormatSpecifier:::localizedMagnitude->rgb(99,222,99)
java/util/HashMap$Values:::iterator->rgb(99,222,99)
java/util/HashMap:::afterNodeInsertion->rgb(99,222,99)
java/util/HashMap:::put->rgb(99,222,99)
java/util/HashMap:::resize->rgb(99,222,99)
java/util/HashSet:::add->rgb(99,222,99)
java/util/HashSet:::iterator->rgb(99,222,99)
java/util/LinkedHashMap:::afterNodeInsertion->rgb(99,222,99)
java/util/Spliterator:::getExactSizeIfKnown->rgb(99,222,99)
java/util/Spliterators$IteratorSpliterator:::tryAdvance->rgb(99,222,99)
java/util/TreeMap$Values:::iterator->rgb(99,222,99)
java/util/TreeMap:::put->rgb(99,222,99)
java/util/UUID:::hashCode->rgb(99,222,99)
java/util/concurrent/ConcurrentHashMap$EntryIterator:::next->rgb(99,222,99)
java/util/concurrent/ConcurrentHashMap$ValuesView:::iterator->rgb(99,222,99)
java/util/concurrent/ConcurrentSkipListMap:::doGet->rgb(99,222,99)
java/util/concurrent/ConcurrentSkipListMap:::doPut->rgb(99,222,99)
java/util/concurrent/ConcurrentSkipListMap:::doRemove->rgb(99,222,99)
java/util/concurrent/ConcurrentSkipListMap:::get->rgb(99,222,99)
java/util/concurrent/ConcurrentSkipListMap:::toList->rgb(99,222,99)
java/util/concurrent/CopyOnWriteArrayList:::size->rgb(99,222,99)
java/util/concurrent/Executors$RunnableAdapter:::call->rgb(99,222,99)
java/util/concurrent/FutureTask:::run->rgb(99,222,99)
java/util/concurrent/FutureTask:::runAndReset->rgb(99,222,99)
java/util/concurrent/ScheduledThreadPoolExecutor$DelayedWorkQueue:::take->rgb(99,222,99)
java/util/concurrent/ThreadPoolExecutor:::getTask->rgb(99,222,99)
java/util/concurrent/ThreadPoolExecutor:::runStateAtLeast->rgb(99,222,99)
java/util/concurrent/ThreadPoolExecutor:::runWorker->rgb(99,222,99)
java/util/concurrent/atomic/AtomicIntegerFieldUpdater$AtomicIntegerFieldUpdaterImpl:::getAndAdd->rgb(99,222,99)
java/util/concurrent/locks/AbstractQueuedSynchronizer$ConditionObject:::awaitNanos->rgb(99,222,99)
java/util/concurrent/locks/AbstractQueuedSynchronizer$ConditionObject:::signal->rgb(99,222,99)
java/util/concurrent/locks/AbstractQueuedSynchronizer:::doReleaseShared->rgb(99,222,99)
java/util/concurrent/locks/ReentrantLock$Sync:::tryRelease->rgb(99,222,99)
java/util/stream/AbstractPipeline:::evaluate->rgb(99,222,99)
java/util/stream/Collectors$CollectorImpl:::characteristics->rgb(99,222,99)
java/util/stream/Sink$ChainedReference:::begin->rgb(99,222,99)
java/util/zip/CRC32:::update->rgb(99,222,99)
javax/management/openmbean/CompositeDataSupport:::init->rgb(99,222,99)
javax/management/openmbean/TabularDataSupport:::checkValueAndIndex->rgb(99,222,99)
javax/management/openmbean/TabularDataSupport:::checkValueType->rgb(99,222,99)
javax/management/openmbean/TabularDataSupport:::init->rgb(99,222,99)
jbyte_disjoint_arraycopy->rgb(222,99,99)
jint_disjoint_arraycopy->rgb(222,99,99)
jlong_disjoint_arraycopy->rgb(222,99,99)
jni_GetArrayLength->rgb(222,99,99)
jni_GetPrimitiveArrayCritical->rgb(222,99,99)
jshort_arraycopy->rgb(222,99,99)
kfree_skbmem->rgb(222,99,99)
kmem_cache_alloc_node->rgb(222,99,99)
kmem_cache_free->rgb(222,99,99)
ksize->rgb(222,99,99)
ktime_add_safe->rgb(222,99,99)
ktime_get_with_offset->rgb(222,99,99)
local_clock->rgb(222,99,99)
lock_hrtimer_base.isra.18->rgb(222,99,99)
lock_sock_nested->rgb(222,99,99)
loopback_xmit->rgb(222,99,99)
mark_page_accessed->rgb(222,99,99)
net_rx_action->rgb(222,99,99)
netdev_pick_tx->rgb(222,99,99)
netif_rx->rgb(222,99,99)
netif_rx_internal->rgb(222,99,99)
new_sync_read->rgb(222,99,99)
nf_conntrack_in->rgb(222,99,99)
nf_ct_get_tuple->rgb(222,99,99)
nf_hook_slow->rgb(222,99,99)
nf_iterate->rgb(222,99,99)
nf_nat_ipv4_local_fn->rgb(222,99,99)
org/antlr/runtime/ANTLRStringStream:::LA->rgb(99,222,99)
org/antlr/runtime/ANTLRStringStream:::getLine->rgb(99,222,99)
org/antlr/runtime/BaseRecognizer:::match->rgb(99,222,99)
org/antlr/runtime/BufferedTokenStream:::fetch->rgb(99,222,99)
org/antlr/runtime/CommonTokenStream:::consume->rgb(99,222,99)
org/antlr/runtime/CommonTokenStream:::setup->rgb(99,222,99)
org/antlr/runtime/DFA:::predict->rgb(99,222,99)
org/antlr/runtime/Lexer:::match->rgb(99,222,99)
org/apache/cassandra/cache/KeyCacheKey:::hashCode->rgb(99,222,99)
org/apache/cassandra/concurrent/AbstractTracingAwareExecutorService$FutureTask:::run->rgb(99,222,99)
org/apache/cassandra/concurrent/AbstractTracingAwareExecutorService:::newTaskFor->rgb(99,222,99)
org/apache/cassandra/concurrent/DebuggableScheduledThreadPoolExecutor$UncomplainingRunnable:::run->rgb(99,222,99)
org/apache/cassandra/concurrent/DebuggableThreadPoolExecutor:::maybeResetTraceSessionWrapper->rgb(99,222,99)
org/apache/cassandra/concurrent/DebuggableThreadPoolExecutor:::newTaskFor->rgb(99,222,99)
org/apache/cassandra/concurrent/SEPWorker:::doWaitSpin->rgb(99,222,99)
org/apache/cassandra/concurrent/SEPWorker:::run->rgb(99,222,99)
org/apache/cassandra/config/CFMetaData$1:::computeNext->rgb(99,222,99)
org/apache/cassandra/config/CFMetaData:::decorateKey->rgb(99,222,99)
org/apache/cassandra/config/CFMetaData:::serializePartitionKey->rgb(99,222,99)
org/apache/cassandra/config/ColumnDefinition:::hashCode->rgb(99,222,99)
org/apache/cassandra/cql3/ColumnConditions:::getFunctions->rgb(99,222,99)
org/apache/cassandra/cql3/ColumnIdentifier$Literal:::prepare->rgb(99,222,99)
org/apache/cassandra/cql3/ColumnIdentifier:::init->rgb(99,222,99)
org/apache/cassandra/cql3/Constants$Literal:::prepare->rgb(99,222,99)
org/apache/cassandra/cql3/CqlLexer:::mK_FROM->rgb(99,222,99)
org/apache/cassandra/cql3/CqlLexer:::mK_LIMIT->rgb(99,222,99)
org/apache/cassandra/cql3/CqlLexer:::mLETTER->rgb(99,222,99)
org/apache/cassandra/cql3/CqlLexer:::mS->rgb(99,222,99)
org/apache/cassandra/cql3/CqlLexer:::mTokens->rgb(99,222,99)
org/apache/cassandra/cql3/CqlParser:::cfName->rgb(99,222,99)
org/apache/cassandra/cql3/CqlParser:::columnFamilyName->rgb(99,222,99)
org/apache/cassandra/cql3/CqlParser:::cqlStatement->rgb(99,222,99)
org/apache/cassandra/cql3/CqlParser:::normalInsertStatement->rgb(99,222,99)
org/apache/cassandra/cql3/CqlParser:::relation->rgb(99,222,99)
org/apache/cassandra/cql3/CqlParser:::relationOrExpression->rgb(99,222,99)
org/apache/cassandra/cql3/CqlParser:::selectClause->rgb(99,222,99)
org/apache/cassandra/cql3/CqlParser:::selectStatement->rgb(99,222,99)
org/apache/cassandra/cql3/CqlParser:::term->rgb(99,222,99)
org/apache/cassandra/cql3/Operations:::getFunctions->rgb(99,222,99)
org/apache/cassandra/cql3/QueryOptions$Codec:::decode->rgb(99,222,99)
org/apache/cassandra/cql3/QueryProcessor:::process->rgb(99,222,99)
org/apache/cassandra/cql3/QueryProcessor:::processStatement->rgb(99,222,99)
org/apache/cassandra/cql3/ResultSet$Codec:::encode->rgb(99,222,99)
org/apache/cassandra/cql3/ResultSet$Codec:::encodedSize->rgb(99,222,99)
org/apache/cassandra/cql3/VariableSpecifications:::getPartitionKeyBindIndexes->rgb(99,222,99)
org/apache/cassandra/cql3/WhereClause:::init->rgb(99,222,99)
org/apache/cassandra/cql3/restrictions/PrimaryKeyRestrictionSet:::appendTo->rgb(99,222,99)
org/apache/cassandra/cql3/restrictions/PrimaryKeyRestrictionSet:::getFunctions->rgb(99,222,99)
org/apache/cassandra/cql3/restrictions/PrimaryKeyRestrictionSet:::hasIN->rgb(99,222,99)
org/apache/cassandra/cql3/restrictions/PrimaryKeyRestrictionSet:::mergeWith->rgb(99,222,99)
org/apache/cassandra/cql3/restrictions/PrimaryKeyRestrictionSet:::values->rgb(99,222,99)
org/apache/cassandra/cql3/restrictions/RestrictionSet$2:::apply->rgb(99,222,99)
org/apache/cassandra/cql3/restrictions/StatementRestrictions:::getClusteringColumns->rgb(99,222,99)
org/apache/cassandra/cql3/restrictions/StatementRestrictions:::init->rgb(99,222,99)
org/apache/cassandra/cql3/restrictions/StatementRestrictions:::processClusteringColumnsRestrictions->rgb(99,222,99)
org/apache/cassandra/cql3/selection/Selection:::wildcard->rgb(99,222,99)
org/apache/cassandra/cql3/selection/SelectionColumnMapping:::simpleMapping->rgb(99,222,99)
org/apache/cassandra/cql3/statements/ModificationStatement:::addUpdates->rgb(99,222,99)
org/apache/cassandra/cql3/statements/ModificationStatement:::buildPartitionKeyNames->rgb(99,222,99)
org/apache/cassandra/cql3/statements/ModificationStatement:::executeWithoutCondition->rgb(99,222,99)
org/apache/cassandra/cql3/statements/ModificationStatement:::init->rgb(99,222,99)
org/apache/cassandra/cql3/statements/SelectStatement$RawStatement:::prepareRestrictions->rgb(99,222,99)
org/apache/cassandra/cql3/statements/SelectStatement:::addValue->rgb(99,222,99)
org/apache/cassandra/cql3/statements/SelectStatement:::getSliceCommands->rgb(99,222,99)
org/apache/cassandra/cql3/statements/SelectStatement:::init->rgb(99,222,99)
org/apache/cassandra/cql3/statements/SelectStatement:::process->rgb(99,222,99)
org/apache/cassandra/cql3/statements/SelectStatement:::processPartition->rgb(99,222,99)
org/apache/cassandra/cql3/statements/UpdateStatement:::init->rgb(99,222,99)
org/apache/cassandra/cql3/statements/UpdatesCollector:::getPartitionUpdate->rgb(99,222,99)
org/apache/cassandra/cql3/statements/UpdatesCollector:::keyspaceMap->rgb(99,222,99)
org/apache/cassandra/cql3/statements/UpdatesCollector:::validateIndexedColumns->rgb(99,222,99)
org/apache/cassandra/db/AbstractClusteringPrefix:::clustering->rgb(99,222,99)
org/apache/cassandra/db/BufferDecoratedKey:::getKey->rgb(99,222,99)
org/apache/cassandra/db/Clustering$1:::kind->rgb(99,222,99)
org/apache/cassandra/db/ClusteringComparator:::compare->rgb(99,222,99)
org/apache/cassandra/db/ColumnFamilyStore:::isRowCacheEnabled->rgb(99,222,99)
org/apache/cassandra/db/Columns$Serializer:::deserializeSubset->rgb(99,222,99)
org/apache/cassandra/db/Columns$Serializer:::encodeBitmap->rgb(99,222,99)
org/apache/cassandra/db/Columns$Serializer:::serialize->rgb(99,222,99)
org/apache/cassandra/db/Columns:::findFirstComplexIdx->rgb(99,222,99)
org/apache/cassandra/db/Columns:::mergeTo->rgb(99,222,99)
org/apache/cassandra/db/Columns:::size->rgb(99,222,99)
org/apache/cassandra/db/ConsistencyLevel:::assureSufficientLiveNodes->rgb(99,222,99)
org/apache/cassandra/db/DecoratedKey:::compareTo->rgb(99,222,99)
org/apache/cassandra/db/Keyspace:::open->rgb(99,222,99)
org/apache/cassandra/db/LivenessInfo:::create->rgb(99,222,99)
org/apache/cassandra/db/Memtable$ColumnsCollector:::update->rgb(99,222,99)
org/apache/cassandra/db/Mutation:::add->rgb(99,222,99)
org/apache/cassandra/db/Mutation:::init->rgb(99,222,99)
org/apache/cassandra/db/PartitionColumns$Builder:::build->rgb(99,222,99)
org/apache/cassandra/db/ReadCommand$1MetricRecording:::applyToPartition->rgb(99,222,99)
org/apache/cassandra/db/ReadCommand$1MetricRecording:::applyToRow->rgb(99,222,99)
org/apache/cassandra/db/ReadCommand$1MetricRecording:::onClose->rgb(99,222,99)
org/apache/cassandra/db/ReadCommand:::executeLocally->rgb(99,222,99)
org/apache/cassandra/db/ReadCommand:::withStateTracking->rgb(99,222,99)
org/apache/cassandra/db/ReadResponse$LocalDataResponse:::build->rgb(99,222,99)
org/apache/cassandra/db/ReadResponse$LocalDataResponse:::init->rgb(99,222,99)
org/apache/cassandra/db/RowIndexEntry$Serializer:::skipPromotedIndex->rgb(99,222,99)
org/apache/cassandra/db/SerializationHeader$Serializer:::deserializeForMessaging->rgb(99,222,99)
org/apache/cassandra/db/SerializationHeader$Serializer:::serializeForMessaging->rgb(99,222,99)
org/apache/cassandra/db/SinglePartitionReadCommand$Group:::execute->rgb(99,222,99)
org/apache/cassandra/db/SinglePartitionReadCommand:::add->rgb(99,222,99)
org/apache/cassandra/db/SinglePartitionReadCommand:::canRemoveRow->rgb(99,222,99)
org/apache/cassandra/db/SinglePartitionReadCommand:::queryMemtableAndDiskInternal->rgb(99,222,99)
org/apache/cassandra/db/SinglePartitionReadCommand:::queryNeitherCountersNorCollections->rgb(99,222,99)
org/apache/cassandra/db/SinglePartitionReadCommand:::queryStorage->rgb(99,222,99)
org/apache/cassandra/db/SinglePartitionReadCommand:::reduceFilter->rgb(99,222,99)
org/apache/cassandra/db/Slice:::make->rgb(99,222,99)
org/apache/cassandra/db/UnfilteredDeserializer$CurrentDeserializer:::readNext->rgb(99,222,99)
org/apache/cassandra/db/columniterator/AbstractSSTableIterator$Reader:::createDeserializer->rgb(99,222,99)
org/apache/cassandra/db/columniterator/AbstractSSTableIterator$Reader:::hasNext->rgb(99,222,99)
org/apache/cassandra/db/columniterator/AbstractSSTableIterator:::close->rgb(99,222,99)
org/apache/cassandra/db/columniterator/SSTableIterator$ForwardReader:::setForSlice->rgb(99,222,99)
org/apache/cassandra/db/columniterator/SSTableIterator:::close->rgb(99,222,99)
org/apache/cassandra/db/commitlog/AbstractCommitLogService:::finishWriteFor->rgb(99,222,99)
org/apache/cassandra/db/commitlog/CommitLog:::add->rgb(99,222,99)
org/apache/cassandra/db/commitlog/CommitLogSegment$Allocation:::markWritten->rgb(99,222,99)
org/apache/cassandra/db/compaction/CompactionInfo$Holder:::isStopRequested->rgb(99,222,99)
org/apache/cassandra/db/compaction/CompactionManager:::submitBackground->rgb(99,222,99)
org/apache/cassandra/db/filter/ClusteringIndexNamesFilter$2:::computeNext->rgb(99,222,99)
org/apache/cassandra/db/filter/ClusteringIndexNamesFilter:::getUnfilteredRowIterator->rgb(99,222,99)
org/apache/cassandra/db/lifecycle/View:::sstables->rgb(99,222,99)
org/apache/cassandra/db/marshal/AbstractType:::valueLengthIfFixed->rgb(99,222,99)
org/apache/cassandra/db/monitoring/ApproximateTime$$Lambda$170/61040849:::run->rgb(99,222,99)
org/apache/cassandra/db/partitions/AbstractBTreePartition$1:::init->rgb(99,222,99)
org/apache/cassandra/db/partitions/AbstractBTreePartition$SliceableIterator:::computeNext->rgb(99,222,99)
org/apache/cassandra/db/partitions/AbstractBTreePartition:::access$000->rgb(99,222,99)
org/apache/cassandra/db/partitions/AbstractBTreePartition:::build->rgb(99,222,99)
org/apache/cassandra/db/partitions/AtomicBTreePartition$RowUpdater:::apply->rgb(99,222,99)
org/apache/cassandra/db/partitions/ImmutableBTreePartition:::holder->rgb(99,222,99)
org/apache/cassandra/db/partitions/PartitionUpdate:::add->rgb(99,222,99)
org/apache/cassandra/db/partitions/PurgeFunction:::applyToPartition->rgb(99,222,99)
org/apache/cassandra/db/partitions/SingletonUnfilteredPartitionIterator:::metadata->rgb(99,222,99)
org/apache/cassandra/db/partitions/UnfilteredPartitionIterators$Serializer$1:::hasNext->rgb(99,222,99)
org/apache/cassandra/db/partitions/UnfilteredPartitionIterators$Serializer$1:::next->rgb(99,222,99)
org/apache/cassandra/db/partitions/UnfilteredPartitionIterators$Serializer:::serialize->rgb(99,222,99)
org/apache/cassandra/db/rows/AbstractUnfilteredRowIterator:::staticRow->rgb(99,222,99)
org/apache/cassandra/db/rows/BTreeRow$Builder:::build->rgb(99,222,99)
org/apache/cassandra/db/rows/BTreeRow:::dataSize->rgb(99,222,99)
org/apache/cassandra/db/rows/BTreeRow:::hasComplexDeletion->rgb(99,222,99)
org/apache/cassandra/db/rows/BTreeRow:::minDeletionTime->rgb(99,222,99)
org/apache/cassandra/db/rows/BufferCell$Serializer:::serialize->rgb(99,222,99)
org/apache/cassandra/db/rows/EncodingStats$Serializer:::deserialize->rgb(99,222,99)
org/apache/cassandra/db/rows/LazilyInitializedUnfilteredRowIterator:::computeNext->rgb(99,222,99)
org/apache/cassandra/db/rows/Row$Merger:::init->rgb(99,222,99)
org/apache/cassandra/db/rows/RowAndDeletionMergeIterator:::computeNext->rgb(99,222,99)
org/apache/cassandra/db/rows/Rows:::merge->rgb(99,222,99)
org/apache/cassandra/db/rows/SerializationHelper:::isDropped->rgb(99,222,99)
org/apache/cassandra/db/rows/UnfilteredRowIteratorSerializer$1:::computeNext->rgb(99,222,99)
org/apache/cassandra/db/rows/UnfilteredRowIteratorSerializer:::deserialize->rgb(99,222,99)
org/apache/cassandra/db/rows/UnfilteredRowIteratorSerializer:::deserializeHeader->rgb(99,222,99)
org/apache/cassandra/db/rows/UnfilteredRowIteratorSerializer:::serialize->rgb(99,222,99)
org/apache/cassandra/db/rows/UnfilteredRowIterators$UnfilteredRowMergeIterator:::close->rgb(99,222,99)
org/apache/cassandra/db/rows/UnfilteredRowIterators$UnfilteredRowMergeIterator:::computeNext->rgb(99,222,99)
org/apache/cassandra/db/rows/UnfilteredRowIterators$UnfilteredRowMergeIterator:::init->rgb(99,222,99)
org/apache/cassandra/db/rows/UnfilteredSerializer:::deserialize->rgb(99,222,99)
org/apache/cassandra/db/rows/UnfilteredSerializer:::deserializeRowBody->rgb(99,222,99)
org/apache/cassandra/db/rows/UnfilteredSerializer:::readSimpleColumn->rgb(99,222,99)
org/apache/cassandra/db/rows/UnfilteredSerializer:::serialize->rgb(99,222,99)
org/apache/cassandra/db/rows/UnfilteredSerializer:::serializedRowBodySize->rgb(99,222,99)
org/apache/cassandra/db/rows/UnfilteredSerializer:::serializedSize->rgb(99,222,99)
org/apache/cassandra/db/transform/BaseIterator:::close->rgb(99,222,99)
org/apache/cassandra/db/transform/BasePartitions:::hasNext->rgb(99,222,99)
org/apache/cassandra/db/transform/BasePartitions:::runOnClose->rgb(99,222,99)
org/apache/cassandra/db/transform/BaseRows:::hasNext->rgb(99,222,99)
org/apache/cassandra/db/transform/BaseRows:::staticRow->rgb(99,222,99)
org/apache/cassandra/db/transform/Filter:::applyToPartition->rgb(99,222,99)
org/apache/cassandra/db/transform/FilteredPartitions:::filter->rgb(99,222,99)
org/apache/cassandra/db/transform/FilteredRows:::isEmpty->rgb(99,222,99)
org/apache/cassandra/db/transform/StoppingTransformation:::attachTo->rgb(99,222,99)
org/apache/cassandra/db/transform/Transformation:::applyToStatic->rgb(99,222,99)
org/apache/cassandra/db/transform/UnfilteredPartitions:::metadata->rgb(99,222,99)
org/apache/cassandra/db/transform/UnfilteredRows:::isEmpty->rgb(99,222,99)
org/apache/cassandra/dht/AbstractBounds:::format->rgb(99,222,99)
org/apache/cassandra/gms/Gossiper:::addLocalApplicationStateInternal->rgb(99,222,99)
org/apache/cassandra/gms/Gossiper:::addLocalApplicationStates->rgb(99,222,99)
org/apache/cassandra/gms/Gossiper:::doOnChangeNotifications->rgb(99,222,99)
org/apache/cassandra/io/compress/CompressedRandomAccessReader:::init->rgb(99,222,99)
org/apache/cassandra/io/compress/CompressedRandomAccessReader:::reBufferMmap->rgb(99,222,99)
org/apache/cassandra/io/compress/CompressedRandomAccessReader:::releaseBuffer->rgb(99,222,99)
org/apache/cassandra/io/compress/LZ4Compressor:::uncompress->rgb(99,222,99)
org/apache/cassandra/io/sstable/Downsampling:::getOriginalIndexes->rgb(99,222,99)
org/apache/cassandra/io/sstable/IndexSummaryBuilder:::maybeAddEntry->rgb(99,222,99)
org/apache/cassandra/io/sstable/SSTableIdentityIterator:::computeNext->rgb(99,222,99)
org/apache/cassandra/io/sstable/SSTableSimpleIterator$CurrentFormatIterator:::computeNext->rgb(99,222,99)
org/apache/cassandra/io/sstable/format/big/BigTableReader:::iterator->rgb(99,222,99)
org/apache/cassandra/io/sstable/format/big/BigTableWriter:::maybeLogLargePartitionWarning->rgb(99,222,99)
org/apache/cassandra/io/util/BufferedDataOutputStreamPlus:::write->rgb(99,222,99)
org/apache/cassandra/io/util/BufferedDataOutputStreamPlus:::writeByte->rgb(99,222,99)
org/apache/cassandra/io/util/BufferedDataOutputStreamPlus:::writeUnsignedVInt->rgb(99,222,99)
org/apache/cassandra/io/util/DataOutputBuffer:::doFlush->rgb(99,222,99)
org/apache/cassandra/io/util/RandomAccessReader:::close->rgb(99,222,99)
org/apache/cassandra/io/util/RandomAccessReader:::init->rgb(99,222,99)
org/apache/cassandra/locator/AbstractReplicationStrategy:::getNaturalEndpoints->rgb(99,222,99)
org/apache/cassandra/locator/DynamicEndpointSnitch$1:::run->rgb(99,222,99)
org/apache/cassandra/locator/DynamicEndpointSnitch:::updateScores->rgb(99,222,99)
org/apache/cassandra/locator/SimpleSnitch:::getDatacenter->rgb(99,222,99)
org/apache/cassandra/locator/SimpleStrategy:::calculateNaturalEndpoints->rgb(99,222,99)
org/apache/cassandra/locator/TokenMetadata:::pendingEndpointsFor->rgb(99,222,99)
org/apache/cassandra/locator/TokenMetadata:::ringIterator->rgb(99,222,99)
org/apache/cassandra/metrics/LatencyMetrics:::addNano->rgb(99,222,99)
org/apache/cassandra/metrics/TableMetrics$TableHistogram:::update->rgb(99,222,99)
org/apache/cassandra/net/MessageIn:::init->rgb(99,222,99)
org/apache/cassandra/net/MessagingService:::addLatency->rgb(99,222,99)
org/apache/cassandra/schema/CompressionParams:::getCrcCheckChance->rgb(99,222,99)
org/apache/cassandra/serializers/Int32Serializer:::deserialize->rgb(99,222,99)
org/apache/cassandra/serializers/UTF8Serializer$UTF8Validator:::validate->rgb(99,222,99)
org/apache/cassandra/serializers/UTF8Serializer:::validate->rgb(99,222,99)
org/apache/cassandra/service/AbstractWriteResponseHandler:::assureSufficientLiveNodes->rgb(99,222,99)
org/apache/cassandra/service/DigestResolver:::getData->rgb(99,222,99)
org/apache/cassandra/service/DigestResolver:::preprocess->rgb(99,222,99)
org/apache/cassandra/service/ReadCallback:::response->rgb(99,222,99)
org/apache/cassandra/service/StorageProxy$2:::apply->rgb(99,222,99)
org/apache/cassandra/service/StorageProxy$LocalReadRunnable:::runMayThrow->rgb(99,222,99)
org/apache/cassandra/service/StorageProxy$SinglePartitionReadLifecycle:::awaitResultsAndRetryOnDigestMismatch->rgb(99,222,99)
org/apache/cassandra/service/StorageProxy:::fetchRows->rgb(99,222,99)
org/apache/cassandra/service/StorageProxy:::mutate->rgb(99,222,99)
org/apache/cassandra/service/StorageProxy:::readRegular->rgb(99,222,99)
org/apache/cassandra/service/StorageProxy:::sendToHintedEndpoints->rgb(99,222,99)
org/apache/cassandra/service/StorageService:::onChange->rgb(99,222,99)
org/apache/cassandra/thrift/ThriftValidation:::validateColumnFamily->rgb(99,222,99)
org/apache/cassandra/tracing/Tracing:::stopSession->rgb(99,222,99)
org/apache/cassandra/transport/CBUtil:::readBoundValue->rgb(99,222,99)
org/apache/cassandra/transport/CBUtil:::readString->rgb(99,222,99)
org/apache/cassandra/transport/DataType:::serializedValueSize->rgb(99,222,99)
org/apache/cassandra/transport/DataType:::writeValue->rgb(99,222,99)
org/apache/cassandra/transport/Frame$Compressor:::encode->rgb(99,222,99)
org/apache/cassandra/transport/Frame$Decoder:::decode->rgb(99,222,99)
org/apache/cassandra/transport/Frame$Encoder:::encode->rgb(99,222,99)
org/apache/cassandra/transport/Frame$Header:::init->rgb(99,222,99)
org/apache/cassandra/transport/Message$Dispatcher$Flusher:::run->rgb(99,222,99)
org/apache/cassandra/transport/Message$ProtocolDecoder:::decode->rgb(99,222,99)
org/apache/cassandra/transport/Message$ProtocolEncoder:::encode->rgb(99,222,99)
org/apache/cassandra/utils/AbstractIterator:::hasNext->rgb(99,222,99)
org/apache/cassandra/utils/AsymmetricOrdering:::binarySearchAsymmetric->rgb(99,222,99)
org/apache/cassandra/utils/BackgroundActivityMonitor$BackgroundActivityReporter:::run->rgb(99,222,99)
org/apache/cassandra/utils/IntervalTree:::search->rgb(99,222,99)
org/apache/cassandra/utils/MergeIterator$ManyToOne:::computeNext->rgb(99,222,99)
org/apache/cassandra/utils/MergeIterator$ManyToOne:::replaceAndSink->rgb(99,222,99)
org/apache/cassandra/utils/MergeIterator:::get->rgb(99,222,99)
org/apache/cassandra/utils/MurmurHash:::getblock->rgb(99,222,99)
org/apache/cassandra/utils/MurmurHash:::hash3_x64_128->rgb(99,222,99)
org/apache/cassandra/utils/WrappedRunnable:::run->rgb(99,222,99)
org/apache/cassandra/utils/btree/BTree$Builder:::build->rgb(99,222,99)
org/apache/cassandra/utils/btree/BTree:::build->rgb(99,222,99)
org/apache/cassandra/utils/btree/BTree:::buildInternal->rgb(99,222,99)
org/apache/cassandra/utils/btree/BTree:::update->rgb(99,222,99)
org/apache/cassandra/utils/btree/BTreeSearchIterator:::next->rgb(99,222,99)
org/apache/cassandra/utils/btree/BTreeSet:::contains->rgb(99,222,99)
org/apache/cassandra/utils/btree/NodeBuilder:::update->rgb(99,222,99)
org/apache/cassandra/utils/btree/NodeCursor:::seekInNode->rgb(99,222,99)
org/apache/cassandra/utils/btree/TreeBuilder:::update->rgb(99,222,99)
org/apache/cassandra/utils/btree/TreeCursor:::seekTo->rgb(99,222,99)
org/apache/cassandra/utils/concurrent/Ref$GlobalState:::release->rgb(99,222,99)
org/apache/cassandra/utils/concurrent/SimpleCondition:::await->rgb(99,222,99)
org/apache/cassandra/utils/concurrent/WaitQueue:::signalAll->rgb(99,222,99)
org/apache/cassandra/utils/memory/AbstractAllocator$CloningBTreeRowBuilder:::addCell->rgb(99,222,99)
org/apache/cassandra/utils/memory/AbstractAllocator$CloningBTreeRowBuilder:::init->rgb(99,222,99)
org/apache/cassandra/utils/memory/BufferPool:::maybeTakeFromPool->rgb(99,222,99)
org/apache/cassandra/utils/memory/ContextAllocator:::clone->rgb(99,222,99)
org/apache/cassandra/utils/memory/SlabAllocator:::getRegion->rgb(99,222,99)
pagecache_get_page->rgb(222,99,99)
plist_del->rgb(222,99,99)
process_backlog->rgb(222,99,99)
pthread_cond_destroy@@GLIBC_2.3.2->rgb(222,99,99)
pthread_cond_init@@GLIBC_2.3.2->rgb(222,99,99)
pthread_cond_signal@@GLIBC_2.3.2->rgb(222,99,99)
pthread_cond_timedwait@@GLIBC_2.3.2->rgb(222,99,99)
pthread_cond_timedwait@plt->rgb(222,99,99)
pthread_getspecific->rgb(222,99,99)
pthread_mutex_trylock->rgb(222,99,99)
pthread_mutex_trylock@plt->rgb(222,99,99)
pthread_mutex_unlock->rgb(222,99,99)
put_cpu_partial->rgb(222,99,99)
pvclock_clocksource_read->rgb(222,99,99)
radix_tree_lookup_slot->rgb(222,99,99)
raw_local_deliver->rgb(222,99,99)
read->rgb(222,99,99)
register_finalizer Runtime1 stub->rgb(222,99,99)
release_pages->rgb(222,99,99)
release_sock->rgb(222,99,99)
retint_careful->rgb(222,99,99)
rh_timer_func->rgb(222,99,99)
run_timer_softirq->rgb(222,99,99)
rw_verify_area->rgb(222,99,99)
sched_clock->rgb(222,99,99)
sched_clock_cpu->rgb(222,99,99)
sched_clock_local->rgb(222,99,99)
schedule->rgb(222,99,99)
schedule_hrtimeout_range->rgb(222,99,99)
schedule_hrtimeout_range_clock->rgb(222,99,99)
schedule_hrtimeout_range_clock.part.24->rgb(222,99,99)
security_file_permission->rgb(222,99,99)
sk_stream_alloc_skb->rgb(222,99,99)
skb_copy_datagram_iter->rgb(222,99,99)
smp_apic_timer_interrupt->rgb(222,99,99)
sock_def_readable->rgb(222,99,99)
sock_poll->rgb(222,99,99)
sock_read_iter->rgb(222,99,99)
sock_recvmsg->rgb(222,99,99)
sock_sendmsg->rgb(222,99,99)
sock_write_iter->rgb(222,99,99)
start_thread->rgb(222,99,99)
sun/management/MappedMXBeanType$CompositeDataMXBeanType:::toOpenTypeData->rgb(99,222,99)
sun/management/MemoryUsageCompositeData:::getCompositeData->rgb(99,222,99)
sun/management/MemoryUsageCompositeData:::validateCompositeData->rgb(99,222,99)
sun/misc/Unsafe:::park->rgb(99,222,99)
sun/misc/Unsafe:::unpark->rgb(99,222,99)
sun/nio/ch/FileDispatcherImpl:::write->rgb(99,222,99)
sun/nio/cs/UTF_8$Decoder:::decodeBufferLoop->rgb(99,222,99)
sun/nio/cs/UTF_8$Encoder:::encode->rgb(99,222,99)
sun/nio/cs/UTF_8$Encoder:::init->rgb(99,222,99)
sun/nio/cs/UTF_8:::newEncoder->rgb(99,222,99)
sys_epoll_wait->rgb(222,99,99)
sys_futex->rgb(222,99,99)
sys_madvise->rgb(222,99,99)
sys_read->rgb(222,99,99)
sys_sched_yield->rgb(222,99,99)
sys_write->rgb(222,99,99)
sys_writev->rgb(222,99,99)
tcp_ack->rgb(222,99,99)
tcp_check_space->rgb(222,99,99)
tcp_current_mss->rgb(222,99,99)
tcp_data_queue->rgb(222,99,99)
tcp_error->rgb(222,99,99)
tcp_event_data_recv->rgb(222,99,99)
tcp_event_new_data_sent->rgb(222,99,99)
tcp_init_tso_segs->rgb(222,99,99)
tcp_push->rgb(222,99,99)
tcp_rcv_established->rgb(222,99,99)
tcp_rearm_rto.part.58->rgb(222,99,99)
tcp_recvmsg->rgb(222,99,99)
tcp_release_cb->rgb(222,99,99)
tcp_send_mss->rgb(222,99,99)
tcp_sendmsg->rgb(222,99,99)
tcp_transmit_skb->rgb(222,99,99)
tcp_v4_do_rcv->rgb(222,99,99)
tcp_v4_rcv->rgb(222,99,99)
tcp_v4_send_check->rgb(222,99,99)
tcp_write_xmit->rgb(222,99,99)
tlb_finish_mmu->rgb(222,99,99)
tlb_flush_mmu_free->rgb(222,99,99)
trace_do_page_fault->rgb(222,99,99)
try_to_wake_up->rgb(222,99,99)
uhci_hub_status_data->rgb(222,99,99)
unmap_page_range->rgb(222,99,99)
unmap_single_vma->rgb(222,99,99)
updateBytesCRC32->rgb(222,99,99)
usb_hcd_poll_rh_status->rgb(222,99,99)
vfs_read->rgb(222,99,99)
vfs_write->rgb(222,99,99)
vfs_writev->rgb(222,99,99)
vmacache_find->rgb(222,99,99)
vtable stub->rgb(222,99,99)
wake_up_process->rgb(222,99,99)
wake_up_q->rgb(222,99,99)
write->rgb(222,99,99)
writev->rgb(222,99,99)
writev0->rgb(222,99,99)
xfrm_lookup->rgb(222,99,99)
zap_page_range->rgb(222,99,99)
